---
triple:          'arm64-apple-darwin'
binary-path:     main.out
relocations:
  - { offsetInCU: 0x563A, offset: 0x563A, size: 0x8, addend: 0x0, symName: __ZNSt3__17advanceB8ue170006IPNS_6vectorI11GRID_STATUSNS_9allocatorIS2_EEEEllvEEvRT_T0_, symObjAddr: 0x480C, symBinAddr: 0x10000529C, symSize: 0x38 }
  - { offsetInCU: 0x59F9, offset: 0x59F9, size: 0x8, addend: 0x0, symName: __ZNSt3__17advanceB8ue170006IP11GRID_STATUSllvEEvRT_T0_, symObjAddr: 0x5718, symBinAddr: 0x1000061A8, symSize: 0x38 }
  - { offsetInCU: 0x643A, offset: 0x643A, size: 0x8, addend: 0x0, symName: __ZNSt3__124__put_character_sequenceB8ue170006IcNS_11char_traitsIcEEEERNS_13basic_ostreamIT_T0_EES7_PKS4_m, symObjAddr: 0x5E2C, symBinAddr: 0x1000068BC, symSize: 0x1F4 }
  - { offsetInCU: 0x8B67, offset: 0x8B67, size: 0x8, addend: 0x0, symName: __ZNSt3__1neB8ue170006ERKNS_15__list_iteratorI5PointPvEES5_, symObjAddr: 0x5EC, symBinAddr: 0x10000107C, symSize: 0x34 }
  - { offsetInCU: 0x8BA4, offset: 0x8BA4, size: 0x8, addend: 0x0, symName: __ZNSt3__1lsB8ue170006INS_11char_traitsIcEEEERNS_13basic_ostreamIcT_EES6_PKc, symObjAddr: 0x954, symBinAddr: 0x1000013E4, symSize: 0x48 }
  - { offsetInCU: 0x8BEA, offset: 0x8BEA, size: 0x8, addend: 0x0, symName: __ZNSt3__14endlB8ue170006IcNS_11char_traitsIcEEEERNS_13basic_ostreamIT_T0_EES7_, symObjAddr: 0xA68, symBinAddr: 0x1000014F8, symSize: 0x58 }
  - { offsetInCU: 0x8C5D, offset: 0x8C5D, size: 0x8, addend: 0x0, symName: __ZNSt3__130__libcpp_is_constant_evaluatedB8ue170006Ev, symObjAddr: 0x11A4, symBinAddr: 0x100001C34, symSize: 0xC }
  - { offsetInCU: 0x8C7A, offset: 0x8C7A, size: 0x8, addend: 0x0, symName: __ZNSt3__119__libcpp_deallocateB8ue170006EPvmm, symObjAddr: 0x11B0, symBinAddr: 0x100001C40, symSize: 0x30 }
  - { offsetInCU: 0x8CC2, offset: 0x8CC2, size: 0x8, addend: 0x0, symName: __ZNSt3__127__do_deallocate_handle_sizeB8ue170006IJEEEvPvmDpT_, symObjAddr: 0x11E0, symBinAddr: 0x100001C70, symSize: 0x28 }
  - { offsetInCU: 0x8D00, offset: 0x8D00, size: 0x8, addend: 0x0, symName: __ZNSt3__124__libcpp_operator_deleteB8ue170006IJPvEEEvDpT_, symObjAddr: 0x1208, symBinAddr: 0x100001C98, symSize: 0x24 }
  - { offsetInCU: 0x8D53, offset: 0x8D53, size: 0x8, addend: 0x0, symName: __ZNSt3__117__libcpp_allocateB8ue170006Emm, symObjAddr: 0x1790, symBinAddr: 0x100002220, symSize: 0x28 }
  - { offsetInCU: 0x8D90, offset: 0x8D90, size: 0x8, addend: 0x0, symName: __ZNSt3__121__libcpp_operator_newB8ue170006IJmEEEPvDpT_, symObjAddr: 0x17D0, symBinAddr: 0x100002260, symSize: 0x24 }
  - { offsetInCU: 0x8DC9, offset: 0x8DC9, size: 0x8, addend: 0x0, symName: __ZNSt3__122__make_exception_guardB8ue170006INS_6vectorI11GRID_STATUSNS_9allocatorIS2_EEE16__destroy_vectorEEENS_28__exception_guard_exceptionsIT_EES8_, symObjAddr: 0x1C18, symBinAddr: 0x1000026A8, symSize: 0x40 }
  - { offsetInCU: 0x8DFE, offset: 0x8DFE, size: 0x8, addend: 0x0, symName: __ZNSt3__119__allocate_at_leastB8ue170006INS_9allocatorI11GRID_STATUSEEEENS_19__allocation_resultINS_16allocator_traitsIT_E7pointerEEERS6_m, symObjAddr: 0x2028, symBinAddr: 0x100002AB8, symSize: 0x40 }
  - { offsetInCU: 0x8E41, offset: 0x8E41, size: 0x8, addend: 0x0, symName: __ZNSt3__13minB8ue170006ImEERKT_S3_S3_, symObjAddr: 0x2164, symBinAddr: 0x100002BF4, symSize: 0x2C }
  - { offsetInCU: 0x9085, offset: 0x9085, size: 0x8, addend: 0x0, symName: __ZNSt3__13minB8ue170006ImNS_6__lessIvvEEEERKT_S5_S5_T0_, symObjAddr: 0x21F0, symBinAddr: 0x100002C80, symSize: 0x54 }
  - { offsetInCU: 0x9124, offset: 0x9124, size: 0x8, addend: 0x0, symName: __ZNSt3__120__throw_length_errorB8ue170006EPKc, symObjAddr: 0x22CC, symBinAddr: 0x100002D5C, symSize: 0x64 }
  - { offsetInCU: 0x914E, offset: 0x914E, size: 0x8, addend: 0x0, symName: __ZNSt3__112__to_addressB8ue170006I11GRID_STATUSEEPT_S3_, symObjAddr: 0x252C, symBinAddr: 0x100002FBC, symSize: 0x14 }
  - { offsetInCU: 0x9183, offset: 0x9183, size: 0x8, addend: 0x0, symName: __ZNSt3__122__make_exception_guardB8ue170006INS_6vectorINS1_I11GRID_STATUSNS_9allocatorIS2_EEEENS3_IS5_EEE16__destroy_vectorEEENS_28__exception_guard_exceptionsIT_EESA_, symObjAddr: 0x2B60, symBinAddr: 0x1000035F0, symSize: 0x40 }
  - { offsetInCU: 0x91B8, offset: 0x91B8, size: 0x8, addend: 0x0, symName: __ZNSt3__119__allocate_at_leastB8ue170006INS_9allocatorINS_6vectorI11GRID_STATUSNS1_IS3_EEEEEEEENS_19__allocation_resultINS_16allocator_traitsIT_E7pointerEEERS9_m, symObjAddr: 0x2F78, symBinAddr: 0x100003A08, symSize: 0x40 }
  - { offsetInCU: 0x91FB, offset: 0x91FB, size: 0x8, addend: 0x0, symName: __ZNSt3__112__to_addressB8ue170006INS_6vectorI11GRID_STATUSNS_9allocatorIS2_EEEEEEPT_S7_, symObjAddr: 0x32F0, symBinAddr: 0x100003D80, symSize: 0x14 }
  - { offsetInCU: 0x9230, offset: 0x9230, size: 0x8, addend: 0x0, symName: __ZNSt3__130__uninitialized_allocator_copyB8ue170006INS_9allocatorI11GRID_STATUSEEPS2_S4_S4_EET2_RT_T0_T1_S5_, symObjAddr: 0x3740, symBinAddr: 0x1000041D0, symSize: 0x80 }
  - { offsetInCU: 0x92CD, offset: 0x92CD, size: 0x8, addend: 0x0, symName: __ZNSt3__114__unwrap_rangeB8ue170006IP11GRID_STATUSS2_EENS_4pairIT0_S4_EET_S6_, symObjAddr: 0x37C0, symBinAddr: 0x100004250, symSize: 0x60 }
  - { offsetInCU: 0x9319, offset: 0x9319, size: 0x8, addend: 0x0, symName: __ZNSt3__135__uninitialized_allocator_copy_implB8ue170006INS_9allocatorI11GRID_STATUSEEPS2_S4_S4_EET2_RT_T0_T1_S5_, symObjAddr: 0x3820, symBinAddr: 0x1000042B0, symSize: 0xFC }
  - { offsetInCU: 0x93B7, offset: 0x93B7, size: 0x8, addend: 0x0, symName: __ZNSt3__113__unwrap_iterB8ue170006IP11GRID_STATUSNS_18__unwrap_iter_implIS2_Lb1EEELi0EEEDTclsrT0_8__unwrapclsr3stdE7declvalIT_EEEES6_, symObjAddr: 0x391C, symBinAddr: 0x1000043AC, symSize: 0x24 }
  - { offsetInCU: 0x93FB, offset: 0x93FB, size: 0x8, addend: 0x0, symName: __ZNSt3__113__rewrap_iterB8ue170006IP11GRID_STATUSS2_NS_18__unwrap_iter_implIS2_Lb1EEEEET_S5_T0_, symObjAddr: 0x3940, symBinAddr: 0x1000043D0, symSize: 0x50 }
  - { offsetInCU: 0x9450, offset: 0x9450, size: 0x8, addend: 0x0, symName: __ZNSt3__19make_pairB8ue170006IP11GRID_STATUSS2_EENS_4pairINS_18__unwrap_ref_decayIT_E4typeENS4_IT0_E4typeEEEOS5_OS8_, symObjAddr: 0x3990, symBinAddr: 0x100004420, symSize: 0x38 }
  - { offsetInCU: 0x954C, offset: 0x954C, size: 0x8, addend: 0x0, symName: __ZNSt3__122__make_exception_guardB8ue170006INS_29_AllocatorDestroyRangeReverseINS_9allocatorI11GRID_STATUSEEPS3_EEEENS_28__exception_guard_exceptionsIT_EES8_, symObjAddr: 0x3A38, symBinAddr: 0x1000044C8, symSize: 0x4C }
  - { offsetInCU: 0x9582, offset: 0x9582, size: 0x8, addend: 0x0, symName: __ZNSt3__119__allocator_destroyB8ue170006INS_9allocatorI11GRID_STATUSEENS_16reverse_iteratorIPS2_EES6_EEvRT_T0_T1_, symObjAddr: 0x3CB8, symBinAddr: 0x100004748, symSize: 0x70 }
  - { offsetInCU: 0x95E5, offset: 0x95E5, size: 0x8, addend: 0x0, symName: __ZNSt3__1neB8ue170006IP11GRID_STATUSS2_EEbRKNS_16reverse_iteratorIT_EERKNS3_IT0_EE, symObjAddr: 0x3D5C, symBinAddr: 0x1000047EC, symSize: 0x48 }
  - { offsetInCU: 0x9631, offset: 0x9631, size: 0x8, addend: 0x0, symName: __ZNSt3__112__to_addressB8ue170006INS_16reverse_iteratorIP11GRID_STATUSEEvEEu7__decayIDTclsr19__to_address_helperIT_EE6__callclsr3stdE7declvalIRKS5_EEEEES7_, symObjAddr: 0x3DA4, symBinAddr: 0x100004834, symSize: 0x24 }
  - { offsetInCU: 0x96E3, offset: 0x96E3, size: 0x8, addend: 0x0, symName: __ZNSt3__18distanceB8ue170006IPNS_6vectorI11GRID_STATUSNS_9allocatorIS2_EEEEEENS_15iterator_traitsIT_E15difference_typeES8_S8_, symObjAddr: 0x4500, symBinAddr: 0x100004F90, symSize: 0x2C }
  - { offsetInCU: 0x9726, offset: 0x9726, size: 0x8, addend: 0x0, symName: __ZNSt3__14nextB8ue170006IPNS_6vectorI11GRID_STATUSNS_9allocatorIS2_EEEEEENS_9enable_ifIXsr29__has_input_iterator_categoryIT_EE5valueES8_E4typeES8_NS_15iterator_traitsIS8_E15difference_typeE, symObjAddr: 0x452C, symBinAddr: 0x100004FBC, symSize: 0x34 }
  - { offsetInCU: 0x9769, offset: 0x9769, size: 0x8, addend: 0x0, symName: __ZNSt3__14copyB8ue170006IPNS_6vectorI11GRID_STATUSNS_9allocatorIS2_EEEES6_EET0_T_S8_S7_, symObjAddr: 0x4560, symBinAddr: 0x100004FF0, symSize: 0x40 }
  - { offsetInCU: 0x97C3, offset: 0x97C3, size: 0x8, addend: 0x0, symName: __ZNSt3__16__copyB8ue170006INS_17_ClassicAlgPolicyEPNS_6vectorI11GRID_STATUSNS_9allocatorIS3_EEEES7_S7_EENS_4pairIT0_T2_EES9_T1_SA_, symObjAddr: 0x4634, symBinAddr: 0x1000050C4, symSize: 0x44 }
  - { offsetInCU: 0x982F, offset: 0x982F, size: 0x8, addend: 0x0, symName: __ZNSt3__121__convert_to_integralB8ue170006El, symObjAddr: 0x4844, symBinAddr: 0x1000052D4, symSize: 0x14 }
  - { offsetInCU: 0x985B, offset: 0x985B, size: 0x8, addend: 0x0, symName: __ZNSt3__19__advanceB8ue170006IPNS_6vectorI11GRID_STATUSNS_9allocatorIS2_EEEEEEvRT_NS_15iterator_traitsIS7_E15difference_typeENS_26random_access_iterator_tagE, symObjAddr: 0x4858, symBinAddr: 0x1000052E8, symSize: 0x30 }
  - { offsetInCU: 0x98A4, offset: 0x98A4, size: 0x8, addend: 0x0, symName: __ZNSt3__130__uninitialized_allocator_copyB8ue170006INS_9allocatorINS_6vectorI11GRID_STATUSNS1_IS3_EEEEEEPS5_S7_S7_EET2_RT_T0_T1_S8_, symObjAddr: 0x4888, symBinAddr: 0x100005318, symSize: 0x80 }
  - { offsetInCU: 0x9941, offset: 0x9941, size: 0x8, addend: 0x0, symName: __ZNSt3__114__unwrap_rangeB8ue170006IPNS_6vectorI11GRID_STATUSNS_9allocatorIS2_EEEES6_EENS_4pairIT0_S8_EET_SA_, symObjAddr: 0x4908, symBinAddr: 0x100005398, symSize: 0x60 }
  - { offsetInCU: 0x998D, offset: 0x998D, size: 0x8, addend: 0x0, symName: __ZNSt3__135__uninitialized_allocator_copy_implB8ue170006INS_9allocatorINS_6vectorI11GRID_STATUSNS1_IS3_EEEEEEPS5_S7_S7_EET2_RT_T0_T1_S8_, symObjAddr: 0x4968, symBinAddr: 0x1000053F8, symSize: 0xFC }
  - { offsetInCU: 0x9A2B, offset: 0x9A2B, size: 0x8, addend: 0x0, symName: __ZNSt3__113__unwrap_iterB8ue170006IPNS_6vectorI11GRID_STATUSNS_9allocatorIS2_EEEENS_18__unwrap_iter_implIS6_Lb1EEELi0EEEDTclsrT0_8__unwrapclsr3stdE7declvalIT_EEEESA_, symObjAddr: 0x4A64, symBinAddr: 0x1000054F4, symSize: 0x24 }
  - { offsetInCU: 0x9A6F, offset: 0x9A6F, size: 0x8, addend: 0x0, symName: __ZNSt3__113__rewrap_iterB8ue170006IPNS_6vectorI11GRID_STATUSNS_9allocatorIS2_EEEES6_NS_18__unwrap_iter_implIS6_Lb1EEEEET_S9_T0_, symObjAddr: 0x4A88, symBinAddr: 0x100005518, symSize: 0x50 }
  - { offsetInCU: 0x9AC4, offset: 0x9AC4, size: 0x8, addend: 0x0, symName: __ZNSt3__19make_pairB8ue170006IPNS_6vectorI11GRID_STATUSNS_9allocatorIS2_EEEES6_EENS_4pairINS_18__unwrap_ref_decayIT_E4typeENS8_IT0_E4typeEEEOS9_OSC_, symObjAddr: 0x4AD8, symBinAddr: 0x100005568, symSize: 0x38 }
  - { offsetInCU: 0x9BC0, offset: 0x9BC0, size: 0x8, addend: 0x0, symName: __ZNSt3__122__make_exception_guardB8ue170006INS_29_AllocatorDestroyRangeReverseINS_9allocatorINS_6vectorI11GRID_STATUSNS2_IS4_EEEEEEPS6_EEEENS_28__exception_guard_exceptionsIT_EESB_, symObjAddr: 0x4B80, symBinAddr: 0x100005610, symSize: 0x4C }
  - { offsetInCU: 0x9BF6, offset: 0x9BF6, size: 0x8, addend: 0x0, symName: __ZNSt3__119__allocator_destroyB8ue170006INS_9allocatorINS_6vectorI11GRID_STATUSNS1_IS3_EEEEEENS_16reverse_iteratorIPS5_EES9_EEvRT_T0_T1_, symObjAddr: 0x4E08, symBinAddr: 0x100005898, symSize: 0x70 }
  - { offsetInCU: 0x9C59, offset: 0x9C59, size: 0x8, addend: 0x0, symName: __ZNSt3__1neB8ue170006IPNS_6vectorI11GRID_STATUSNS_9allocatorIS2_EEEES6_EEbRKNS_16reverse_iteratorIT_EERKNS7_IT0_EE, symObjAddr: 0x4EAC, symBinAddr: 0x10000593C, symSize: 0x48 }
  - { offsetInCU: 0x9CA5, offset: 0x9CA5, size: 0x8, addend: 0x0, symName: __ZNSt3__112__to_addressB8ue170006INS_16reverse_iteratorIPNS_6vectorI11GRID_STATUSNS_9allocatorIS3_EEEEEEvEEu7__decayIDTclsr19__to_address_helperIT_EE6__callclsr3stdE7declvalIRKS9_EEEEESB_, symObjAddr: 0x4EF4, symBinAddr: 0x100005984, symSize: 0x24 }
  - { offsetInCU: 0x9D57, offset: 0x9D57, size: 0x8, addend: 0x0, symName: __ZNSt3__123__dispatch_copy_or_moveB8ue170006INS_17_ClassicAlgPolicyENS_11__copy_loopIS1_EENS_14__copy_trivialEPNS_6vectorI11GRID_STATUSNS_9allocatorIS6_EEEESA_SA_EENS_4pairIT2_T4_EESC_T3_SD_, symObjAddr: 0x508C, symBinAddr: 0x100005B1C, symSize: 0x44 }
  - { offsetInCU: 0x9DD5, offset: 0x9DD5, size: 0x8, addend: 0x0, symName: __ZNSt3__121__unwrap_and_dispatchB8ue170006INS_10__overloadINS_11__copy_loopINS_17_ClassicAlgPolicyEEENS_14__copy_trivialEEEPNS_6vectorI11GRID_STATUSNS_9allocatorIS8_EEEESC_SC_Li0EEENS_4pairIT0_T2_EESE_T1_SF_, symObjAddr: 0x50D0, symBinAddr: 0x100005B60, symSize: 0xB4 }
  - { offsetInCU: 0x9EBE, offset: 0x9EBE, size: 0x8, addend: 0x0, symName: __ZNSt3__114__rewrap_rangeB8ue170006IPNS_6vectorI11GRID_STATUSNS_9allocatorIS2_EEEES6_EET_S7_T0_, symObjAddr: 0x520C, symBinAddr: 0x100005C9C, symSize: 0x2C }
  - { offsetInCU: 0x9F0A, offset: 0x9F0A, size: 0x8, addend: 0x0, symName: __ZNSt3__18distanceB8ue170006IP11GRID_STATUSEENS_15iterator_traitsIT_E15difference_typeES4_S4_, symObjAddr: 0x54A0, symBinAddr: 0x100005F30, symSize: 0x2C }
  - { offsetInCU: 0x9F4D, offset: 0x9F4D, size: 0x8, addend: 0x0, symName: __ZNSt3__14nextB8ue170006IP11GRID_STATUSEENS_9enable_ifIXsr29__has_input_iterator_categoryIT_EE5valueES4_E4typeES4_NS_15iterator_traitsIS4_E15difference_typeE, symObjAddr: 0x54CC, symBinAddr: 0x100005F5C, symSize: 0x34 }
  - { offsetInCU: 0x9F90, offset: 0x9F90, size: 0x8, addend: 0x0, symName: __ZNSt3__14copyB8ue170006IP11GRID_STATUSS2_EET0_T_S4_S3_, symObjAddr: 0x5500, symBinAddr: 0x100005F90, symSize: 0x40 }
  - { offsetInCU: 0x9FEA, offset: 0x9FEA, size: 0x8, addend: 0x0, symName: __ZNSt3__16__copyB8ue170006INS_17_ClassicAlgPolicyEP11GRID_STATUSS3_S3_EENS_4pairIT0_T2_EES5_T1_S6_, symObjAddr: 0x5540, symBinAddr: 0x100005FD0, symSize: 0x44 }
  - { offsetInCU: 0xA056, offset: 0xA056, size: 0x8, addend: 0x0, symName: __ZNSt3__19__advanceB8ue170006IP11GRID_STATUSEEvRT_NS_15iterator_traitsIS3_E15difference_typeENS_26random_access_iterator_tagE, symObjAddr: 0x5750, symBinAddr: 0x1000061E0, symSize: 0x28 }
  - { offsetInCU: 0xA09F, offset: 0xA09F, size: 0x8, addend: 0x0, symName: __ZNSt3__123__dispatch_copy_or_moveB8ue170006INS_17_ClassicAlgPolicyENS_11__copy_loopIS1_EENS_14__copy_trivialEP11GRID_STATUSS6_S6_EENS_4pairIT2_T4_EES8_T3_S9_, symObjAddr: 0x5778, symBinAddr: 0x100006208, symSize: 0x44 }
  - { offsetInCU: 0xA11D, offset: 0xA11D, size: 0x8, addend: 0x0, symName: __ZNSt3__121__unwrap_and_dispatchB8ue170006INS_10__overloadINS_11__copy_loopINS_17_ClassicAlgPolicyEEENS_14__copy_trivialEEEP11GRID_STATUSS8_S8_Li0EEENS_4pairIT0_T2_EESA_T1_SB_, symObjAddr: 0x57BC, symBinAddr: 0x10000624C, symSize: 0xB4 }
  - { offsetInCU: 0xA1F1, offset: 0xA1F1, size: 0x8, addend: 0x0, symName: __ZNSt3__114__rewrap_rangeB8ue170006IP11GRID_STATUSS2_EET_S3_T0_, symObjAddr: 0x58B8, symBinAddr: 0x100006348, symSize: 0x2C }
  - { offsetInCU: 0xA23D, offset: 0xA23D, size: 0x8, addend: 0x0, symName: __ZNSt3__119__copy_trivial_implB8ue170006I11GRID_STATUSS1_EENS_4pairIPT_PT0_EES4_S4_S6_, symObjAddr: 0x58E4, symBinAddr: 0x100006374, symSize: 0x80 }
  - { offsetInCU: 0xA2A5, offset: 0xA2A5, size: 0x8, addend: 0x0, symName: __ZNSt3__119__constexpr_memmoveB8ue170006I11GRID_STATUSS1_Li0EEEPT_S3_PT0_NS_15__element_countE, symObjAddr: 0x5964, symBinAddr: 0x1000063F4, symSize: 0xA0 }
  - { offsetInCU: 0xA313, offset: 0xA313, size: 0x8, addend: 0x0, symName: __ZNSt3__19make_pairB8ue170006IRP11GRID_STATUSS2_EENS_4pairINS_18__unwrap_ref_decayIT_E4typeENS5_IT0_E4typeEEEOS6_OS9_, symObjAddr: 0x5A04, symBinAddr: 0x100006494, symSize: 0x38 }
  - { offsetInCU: 0xA362, offset: 0xA362, size: 0x8, addend: 0x0, symName: __ZNSt3__13maxB8ue170006ImEERKT_S3_S3_, symObjAddr: 0x5B34, symBinAddr: 0x1000065C4, symSize: 0x2C }
  - { offsetInCU: 0xA3A5, offset: 0xA3A5, size: 0x8, addend: 0x0, symName: __ZNSt3__13maxB8ue170006ImNS_6__lessIvvEEEERKT_S5_S5_T0_, symObjAddr: 0x5B60, symBinAddr: 0x1000065F0, symSize: 0x54 }
  - { offsetInCU: 0xA3FF, offset: 0xA3FF, size: 0x8, addend: 0x0, symName: __ZNSt3__110__distanceB8ue170006IP11GRID_STATUSEENS_15iterator_traitsIT_E15difference_typeES4_S4_NS_26random_access_iterator_tagE, symObjAddr: 0x5BB4, symBinAddr: 0x100006644, symSize: 0x28 }
  - { offsetInCU: 0xA44C, offset: 0xA44C, size: 0x8, addend: 0x0, symName: __ZNSt3__110__distanceB8ue170006IPNS_6vectorI11GRID_STATUSNS_9allocatorIS2_EEEEEENS_15iterator_traitsIT_E15difference_typeES8_S8_NS_26random_access_iterator_tagE, symObjAddr: 0x5CF0, symBinAddr: 0x100006780, symSize: 0x28 }
  - { offsetInCU: 0xA499, offset: 0xA499, size: 0x8, addend: 0x0, symName: __ZNSt3__1eqB8ue170006ERKNS_15__list_iteratorI5PointPvEES5_, symObjAddr: 0x5DE8, symBinAddr: 0x100006878, symSize: 0x30 }
  - { offsetInCU: 0xA509, offset: 0xA509, size: 0x8, addend: 0x0, symName: __ZNSt3__116__pad_and_outputB8ue170006IcNS_11char_traitsIcEEEENS_19ostreambuf_iteratorIT_T0_EES6_PKS4_S8_S8_RNS_8ios_baseES4_, symObjAddr: 0x6084, symBinAddr: 0x100006B14, symSize: 0x248 }
  - { offsetInCU: 0xA5D8, offset: 0xA5D8, size: 0x8, addend: 0x0, symName: __ZNSt3__112__to_addressB8ue170006IKcEEPT_S3_, symObjAddr: 0x65F4, symBinAddr: 0x100007084, symSize: 0x14 }
  - { offsetInCU: 0xA640, offset: 0xA640, size: 0x8, addend: 0x0, symName: __ZNSt3__19use_facetB8ue170006INS_5ctypeIcEEEERKT_RKNS_6localeE, symObjAddr: 0x68CC, symBinAddr: 0x10000735C, symSize: 0x2C }
  - { offsetInCU: 0xAB0D, offset: 0xAB0D, size: 0x8, addend: 0x0, symName: __ZNSt3__118__constexpr_strlenB8ue170006EPKc, symObjAddr: 0x6964, symBinAddr: 0x1000073F4, symSize: 0x24 }
  - { offsetInCU: 0xAD7A, offset: 0xAD7A, size: 0x8, addend: 0x0, symName: __ZSt28__throw_bad_array_new_lengthB8ue170006v, symObjAddr: 0x175C, symBinAddr: 0x1000021EC, symSize: 0x34 }
  - { offsetInCU: 0xD81C, offset: 0xD81C, size: 0x8, addend: 0x0, symName: __Z9read_gridRNSt3__16vectorINS0_I11GRID_STATUSNS_9allocatorIS1_EEEENS2_IS4_EEEERiS8_, symObjAddr: 0x0, symBinAddr: 0x100000A90, symSize: 0x350 }
  - { offsetInCU: 0xD998, offset: 0xD998, size: 0x8, addend: 0x0, symName: __ZNSt3__14listI5PointNS_9allocatorIS1_EEEC1B8ue170006Ev, symObjAddr: 0x350, symBinAddr: 0x100000DE0, symSize: 0x2C }
  - { offsetInCU: 0xD9C2, offset: 0xD9C2, size: 0x8, addend: 0x0, symName: __ZNSt3__14listI5PointNS_9allocatorIS1_EEE9push_backERKS1_, symObjAddr: 0x37C, symBinAddr: 0x100000E0C, symSize: 0xFC }
  - { offsetInCU: 0xDA17, offset: 0xDA17, size: 0x8, addend: 0x0, symName: __ZN5PointC1Eii, symObjAddr: 0x478, symBinAddr: 0x100000F08, symSize: 0x3C }
  - { offsetInCU: 0xDA5D, offset: 0xDA5D, size: 0x8, addend: 0x0, symName: __ZNSt3__16vectorI11GRID_STATUSNS_9allocatorIS1_EEEC1EmRKS1_, symObjAddr: 0x4B4, symBinAddr: 0x100000F44, symSize: 0x3C }
  - { offsetInCU: 0xDAA7, offset: 0xDAA7, size: 0x8, addend: 0x0, symName: __ZNSt3__16vectorINS0_I11GRID_STATUSNS_9allocatorIS1_EEEENS2_IS4_EEEC1EmRKS4_, symObjAddr: 0x4F0, symBinAddr: 0x100000F80, symSize: 0x3C }
  - { offsetInCU: 0xDAF1, offset: 0xDAF1, size: 0x8, addend: 0x0, symName: __ZNSt3__16vectorINS0_I11GRID_STATUSNS_9allocatorIS1_EEEENS2_IS4_EEEaSB8ue170006ERKS6_, symObjAddr: 0x52C, symBinAddr: 0x100000FBC, symSize: 0x68 }
  - { offsetInCU: 0xDB28, offset: 0xDB28, size: 0x8, addend: 0x0, symName: __ZNSt3__115__list_iteratorI5PointPvEC1B8ue170006Ev, symObjAddr: 0x594, symBinAddr: 0x100001024, symSize: 0x2C }
  - { offsetInCU: 0xDB52, offset: 0xDB52, size: 0x8, addend: 0x0, symName: __ZNSt3__14listI5PointNS_9allocatorIS1_EEE5beginB8ue170006Ev, symObjAddr: 0x5C0, symBinAddr: 0x100001050, symSize: 0x2C }
  - { offsetInCU: 0xDB78, offset: 0xDB78, size: 0x8, addend: 0x0, symName: __ZNSt3__14listI5PointNS_9allocatorIS1_EEE3endB8ue170006Ev, symObjAddr: 0x620, symBinAddr: 0x1000010B0, symSize: 0x2C }
  - { offsetInCU: 0xDB9E, offset: 0xDB9E, size: 0x8, addend: 0x0, symName: __ZNSt3__16vectorINS0_I11GRID_STATUSNS_9allocatorIS1_EEEENS2_IS4_EEEixB8ue170006Em, symObjAddr: 0x64C, symBinAddr: 0x1000010DC, symSize: 0x2C }
  - { offsetInCU: 0xDBD5, offset: 0xDBD5, size: 0x8, addend: 0x0, symName: __ZNKSt3__115__list_iteratorI5PointPvEptB8ue170006Ev, symObjAddr: 0x678, symBinAddr: 0x100001108, symSize: 0x30 }
  - { offsetInCU: 0xDBFB, offset: 0xDBFB, size: 0x8, addend: 0x0, symName: __ZNSt3__16vectorI11GRID_STATUSNS_9allocatorIS1_EEEixB8ue170006Em, symObjAddr: 0x6A8, symBinAddr: 0x100001138, symSize: 0x24 }
  - { offsetInCU: 0xDC32, offset: 0xDC32, size: 0x8, addend: 0x0, symName: __ZNSt3__115__list_iteratorI5PointPvEppB8ue170006Ev, symObjAddr: 0x6CC, symBinAddr: 0x10000115C, symSize: 0x20 }
  - { offsetInCU: 0xDC58, offset: 0xDC58, size: 0x8, addend: 0x0, symName: __ZNSt3__16vectorINS0_I11GRID_STATUSNS_9allocatorIS1_EEEENS2_IS4_EEED1B8ue170006Ev, symObjAddr: 0x6EC, symBinAddr: 0x10000117C, symSize: 0x2C }
  - { offsetInCU: 0xDC82, offset: 0xDC82, size: 0x8, addend: 0x0, symName: __ZNSt3__16vectorI11GRID_STATUSNS_9allocatorIS1_EEED1B8ue170006Ev, symObjAddr: 0x724, symBinAddr: 0x1000011B4, symSize: 0x2C }
  - { offsetInCU: 0xDCAC, offset: 0xDCAC, size: 0x8, addend: 0x0, symName: __ZNSt3__14listI5PointNS_9allocatorIS1_EEED1Ev, symObjAddr: 0x750, symBinAddr: 0x1000011E0, symSize: 0x2C }
  - { offsetInCU: 0xDCD8, offset: 0xDCD8, size: 0x8, addend: 0x0, symName: __Z10print_gridRKNSt3__16vectorINS0_I11GRID_STATUSNS_9allocatorIS1_EEEENS2_IS4_EEEEjj, symObjAddr: 0x77C, symBinAddr: 0x10000120C, symSize: 0x1D8 }
  - { offsetInCU: 0xDD57, offset: 0xDD57, size: 0x8, addend: 0x0, symName: __ZNKSt3__16vectorINS0_I11GRID_STATUSNS_9allocatorIS1_EEEENS2_IS4_EEEixB8ue170006Em, symObjAddr: 0x99C, symBinAddr: 0x10000142C, symSize: 0x2C }
  - { offsetInCU: 0xDD8E, offset: 0xDD8E, size: 0x8, addend: 0x0, symName: __ZNKSt3__16vectorI11GRID_STATUSNS_9allocatorIS1_EEE4sizeB8ue170006Ev, symObjAddr: 0x9C8, symBinAddr: 0x100001458, symSize: 0x28 }
  - { offsetInCU: 0xDDB4, offset: 0xDDB4, size: 0x8, addend: 0x0, symName: __ZNKSt3__16vectorINS0_I11GRID_STATUSNS_9allocatorIS1_EEEENS2_IS4_EEE4sizeB8ue170006Ev, symObjAddr: 0x9F0, symBinAddr: 0x100001480, symSize: 0x28 }
  - { offsetInCU: 0xDDDA, offset: 0xDDDA, size: 0x8, addend: 0x0, symName: __ZNKSt3__16vectorI11GRID_STATUSNS_9allocatorIS1_EEEixB8ue170006Em, symObjAddr: 0xA18, symBinAddr: 0x1000014A8, symSize: 0x24 }
  - { offsetInCU: 0xDE11, offset: 0xDE11, size: 0x8, addend: 0x0, symName: __ZNSt3__113basic_ostreamIcNS_11char_traitsIcEEElsB8ue170006EPFRS3_S4_E, symObjAddr: 0xA3C, symBinAddr: 0x1000014CC, symSize: 0x2C }
  - { offsetInCU: 0xDE44, offset: 0xDE44, size: 0x8, addend: 0x0, symName: __Z13correctAnsweriiRNSt3__16vectorINS0_I11GRID_STATUSNS_9allocatorIS1_EEEENS2_IS4_EEEE, symObjAddr: 0xAC0, symBinAddr: 0x100001550, symSize: 0x20 }
  - { offsetInCU: 0xDE8C, offset: 0xDE8C, size: 0x8, addend: 0x0, symName: __Z11currentPathiiRNSt3__16vectorINS0_I11GRID_STATUSNS_9allocatorIS1_EEEENS2_IS4_EEEE, symObjAddr: 0xAE0, symBinAddr: 0x100001570, symSize: 0x17C }
  - { offsetInCU: 0xDED5, offset: 0xDED5, size: 0x8, addend: 0x0, symName: _main, symObjAddr: 0xC5C, symBinAddr: 0x1000016EC, symSize: 0x90 }
  - { offsetInCU: 0xDF36, offset: 0xDF36, size: 0x8, addend: 0x0, symName: __ZNSt3__16vectorINS0_I11GRID_STATUSNS_9allocatorIS1_EEEENS2_IS4_EEEC1B8ue170006Ev, symObjAddr: 0xCEC, symBinAddr: 0x10000177C, symSize: 0x2C }
  - { offsetInCU: 0xDF60, offset: 0xDF60, size: 0x8, addend: 0x0, symName: __ZN5PointC2Eii, symObjAddr: 0xD18, symBinAddr: 0x1000017A8, symSize: 0x2C }
  - { offsetInCU: 0xDFA6, offset: 0xDFA6, size: 0x8, addend: 0x0, symName: __ZNSt3__14listI5PointNS_9allocatorIS1_EEED2Ev, symObjAddr: 0xD44, symBinAddr: 0x1000017D4, symSize: 0x2C }
  - { offsetInCU: 0xDFD3, offset: 0xDFD3, size: 0x8, addend: 0x0, symName: __ZNSt3__110__list_impI5PointNS_9allocatorIS1_EEED2Ev, symObjAddr: 0xD70, symBinAddr: 0x100001800, symSize: 0x2C }
  - { offsetInCU: 0xDFFF, offset: 0xDFFF, size: 0x8, addend: 0x0, symName: __ZNSt3__110__list_impI5PointNS_9allocatorIS1_EEE5clearEv, symObjAddr: 0xD9C, symBinAddr: 0x10000182C, symSize: 0xF4 }
  - { offsetInCU: 0xE06F, offset: 0xE06F, size: 0x8, addend: 0x0, symName: __ZNKSt3__110__list_impI5PointNS_9allocatorIS1_EEE5emptyB8ue170006Ev, symObjAddr: 0xE90, symBinAddr: 0x100001920, symSize: 0x34 }
  - { offsetInCU: 0xE095, offset: 0xE095, size: 0x8, addend: 0x0, symName: __ZNSt3__110__list_impI5PointNS_9allocatorIS1_EEE12__node_allocB8ue170006Ev, symObjAddr: 0xEC4, symBinAddr: 0x100001954, symSize: 0x28 }
  - { offsetInCU: 0xE0BB, offset: 0xE0BB, size: 0x8, addend: 0x0, symName: __ZNKSt3__110__list_impI5PointNS_9allocatorIS1_EEE13__end_as_linkB8ue170006Ev, symObjAddr: 0xEEC, symBinAddr: 0x10000197C, symSize: 0x58 }
  - { offsetInCU: 0xE0E1, offset: 0xE0E1, size: 0x8, addend: 0x0, symName: __ZNSt3__110__list_impI5PointNS_9allocatorIS1_EEE14__unlink_nodesEPNS_16__list_node_baseIS1_PvEES8_, symObjAddr: 0xF44, symBinAddr: 0x1000019D4, symSize: 0x3C }
  - { offsetInCU: 0xE116, offset: 0xE116, size: 0x8, addend: 0x0, symName: __ZNSt3__110__list_impI5PointNS_9allocatorIS1_EEE4__szB8ue170006Ev, symObjAddr: 0xF80, symBinAddr: 0x100001A10, symSize: 0x28 }
  - { offsetInCU: 0xE13C, offset: 0xE13C, size: 0x8, addend: 0x0, symName: __ZNSt3__116__list_node_baseI5PointPvE9__as_nodeB8ue170006Ev, symObjAddr: 0xFA8, symBinAddr: 0x100001A38, symSize: 0x24 }
  - { offsetInCU: 0xE162, offset: 0xE162, size: 0x8, addend: 0x0, symName: __ZNSt3__116allocator_traitsINS_9allocatorINS_11__list_nodeI5PointPvEEEEE7destroyB8ue170006IS3_vvEEvRS6_PT_, symObjAddr: 0xFCC, symBinAddr: 0x100001A5C, symSize: 0x14 }
  - { offsetInCU: 0xE19D, offset: 0xE19D, size: 0x8, addend: 0x0, symName: __ZNSt3__116allocator_traitsINS_9allocatorINS_11__list_nodeI5PointPvEEEEE10deallocateB8ue170006ERS6_PS5_m, symObjAddr: 0xFE0, symBinAddr: 0x100001A70, symSize: 0x34 }
  - { offsetInCU: 0xE1DF, offset: 0xE1DF, size: 0x8, addend: 0x0, symName: __ZNKSt3__110__list_impI5PointNS_9allocatorIS1_EEE4__szB8ue170006Ev, symObjAddr: 0x1014, symBinAddr: 0x100001AA4, symSize: 0x28 }
  - { offsetInCU: 0xE205, offset: 0xE205, size: 0x8, addend: 0x0, symName: __ZNKSt3__117__compressed_pairImNS_9allocatorINS_11__list_nodeI5PointPvEEEEE5firstB8ue170006Ev, symObjAddr: 0x103C, symBinAddr: 0x100001ACC, symSize: 0x24 }
  - { offsetInCU: 0xE22B, offset: 0xE22B, size: 0x8, addend: 0x0, symName: __ZNKSt3__122__compressed_pair_elemImLi0ELb0EE5__getB8ue170006Ev, symObjAddr: 0x1060, symBinAddr: 0x100001AF0, symSize: 0x14 }
  - { offsetInCU: 0xE251, offset: 0xE251, size: 0x8, addend: 0x0, symName: __ZNSt3__117__compressed_pairImNS_9allocatorINS_11__list_nodeI5PointPvEEEEE6secondB8ue170006Ev, symObjAddr: 0x1074, symBinAddr: 0x100001B04, symSize: 0x24 }
  - { offsetInCU: 0xE277, offset: 0xE277, size: 0x8, addend: 0x0, symName: __ZNSt3__122__compressed_pair_elemINS_9allocatorINS_11__list_nodeI5PointPvEEEELi1ELb1EE5__getB8ue170006Ev, symObjAddr: 0x1098, symBinAddr: 0x100001B28, symSize: 0x14 }
  - { offsetInCU: 0xE29D, offset: 0xE29D, size: 0x8, addend: 0x0, symName: __ZNSt3__126__list_node_pointer_traitsI5PointPvE26__unsafe_link_pointer_castB8ue170006EPNS_16__list_node_baseIS1_S2_EE, symObjAddr: 0x10AC, symBinAddr: 0x100001B3C, symSize: 0x14 }
  - { offsetInCU: 0xE2C1, offset: 0xE2C1, size: 0x8, addend: 0x0, symName: __ZNSt3__116__list_node_baseI5PointPvE6__selfB8ue170006Ev, symObjAddr: 0x10C0, symBinAddr: 0x100001B50, symSize: 0x24 }
  - { offsetInCU: 0xE2EC, offset: 0xE2EC, size: 0x8, addend: 0x0, symName: __ZNSt3__114pointer_traitsIPNS_16__list_node_baseI5PointPvEEE10pointer_toB8ue170006ERS4_, symObjAddr: 0x10E4, symBinAddr: 0x100001B74, symSize: 0x14 }
  - { offsetInCU: 0xE30F, offset: 0xE30F, size: 0x8, addend: 0x0, symName: __ZNSt3__117__compressed_pairImNS_9allocatorINS_11__list_nodeI5PointPvEEEEE5firstB8ue170006Ev, symObjAddr: 0x10F8, symBinAddr: 0x100001B88, symSize: 0x24 }
  - { offsetInCU: 0xE335, offset: 0xE335, size: 0x8, addend: 0x0, symName: __ZNSt3__122__compressed_pair_elemImLi0ELb0EE5__getB8ue170006Ev, symObjAddr: 0x111C, symBinAddr: 0x100001BAC, symSize: 0x14 }
  - { offsetInCU: 0xE35B, offset: 0xE35B, size: 0x8, addend: 0x0, symName: __ZNSt3__19allocatorINS_11__list_nodeI5PointPvEEE10deallocateB8ue170006EPS4_m, symObjAddr: 0x1130, symBinAddr: 0x100001BC0, symSize: 0x74 }
  - { offsetInCU: 0xE39D, offset: 0xE39D, size: 0x8, addend: 0x0, symName: __ZNSt3__14listI5PointNS_9allocatorIS1_EEEC2B8ue170006Ev, symObjAddr: 0x122C, symBinAddr: 0x100001CBC, symSize: 0x2C }
  - { offsetInCU: 0xE3C7, offset: 0xE3C7, size: 0x8, addend: 0x0, symName: __ZNSt3__110__list_impI5PointNS_9allocatorIS1_EEEC2Ev, symObjAddr: 0x1258, symBinAddr: 0x100001CE8, symSize: 0x44 }
  - { offsetInCU: 0xE3F3, offset: 0xE3F3, size: 0x8, addend: 0x0, symName: __ZNSt3__116__list_node_baseI5PointPvEC1B8ue170006Ev, symObjAddr: 0x129C, symBinAddr: 0x100001D2C, symSize: 0x2C }
  - { offsetInCU: 0xE427, offset: 0xE427, size: 0x8, addend: 0x0, symName: __ZNSt3__117__compressed_pairImNS_9allocatorINS_11__list_nodeI5PointPvEEEEEC1B8ue170006IiNS_18__default_init_tagEEEOT_OT0_, symObjAddr: 0x12C8, symBinAddr: 0x100001D58, symSize: 0x3C }
  - { offsetInCU: 0xE47F, offset: 0xE47F, size: 0x8, addend: 0x0, symName: __ZNSt3__116__list_node_baseI5PointPvEC2B8ue170006Ev, symObjAddr: 0x1304, symBinAddr: 0x100001D94, symSize: 0x4C }
  - { offsetInCU: 0xE4A9, offset: 0xE4A9, size: 0x8, addend: 0x0, symName: __ZNSt3__117__compressed_pairImNS_9allocatorINS_11__list_nodeI5PointPvEEEEEC2B8ue170006IiNS_18__default_init_tagEEEOT_OT0_, symObjAddr: 0x1350, symBinAddr: 0x100001DE0, symSize: 0x40 }
  - { offsetInCU: 0xE501, offset: 0xE501, size: 0x8, addend: 0x0, symName: __ZNSt3__122__compressed_pair_elemImLi0ELb0EEC2B8ue170006IivEEOT_, symObjAddr: 0x1390, symBinAddr: 0x100001E20, symSize: 0x24 }
  - { offsetInCU: 0xE543, offset: 0xE543, size: 0x8, addend: 0x0, symName: __ZNSt3__122__compressed_pair_elemINS_9allocatorINS_11__list_nodeI5PointPvEEEELi1ELb1EEC2B8ue170006ENS_18__default_init_tagE, symObjAddr: 0x13B4, symBinAddr: 0x100001E44, symSize: 0x2C }
  - { offsetInCU: 0xE577, offset: 0xE577, size: 0x8, addend: 0x0, symName: __ZNSt3__19allocatorINS_11__list_nodeI5PointPvEEEC2B8ue170006Ev, symObjAddr: 0x13E0, symBinAddr: 0x100001E70, symSize: 0x2C }
  - { offsetInCU: 0xE5A1, offset: 0xE5A1, size: 0x8, addend: 0x0, symName: __ZNSt3__116__non_trivial_ifILb1ENS_9allocatorINS_11__list_nodeI5PointPvEEEEEC2B8ue170006Ev, symObjAddr: 0x140C, symBinAddr: 0x100001E9C, symSize: 0x14 }
  - { offsetInCU: 0xE5CB, offset: 0xE5CB, size: 0x8, addend: 0x0, symName: __ZNSt3__14listI5PointNS_9allocatorIS1_EEE15__allocate_nodeB8ue170006ERNS2_INS_11__list_nodeIS1_PvEEEE, symObjAddr: 0x1420, symBinAddr: 0x100001EB0, symSize: 0x70 }
  - { offsetInCU: 0xE60F, offset: 0xE60F, size: 0x8, addend: 0x0, symName: __ZNSt3__116allocator_traitsINS_9allocatorINS_11__list_nodeI5PointPvEEEEE9constructB8ue170006IS3_JRKS3_EvEEvRS6_PT_DpOT0_, symObjAddr: 0x1490, symBinAddr: 0x100001F20, symSize: 0x34 }
  - { offsetInCU: 0xE666, offset: 0xE666, size: 0x8, addend: 0x0, symName: __ZNKSt3__110unique_ptrINS_11__list_nodeI5PointPvEENS_22__allocator_destructorINS_9allocatorIS4_EEEEEptB8ue170006Ev, symObjAddr: 0x14C4, symBinAddr: 0x100001F54, symSize: 0x28 }
  - { offsetInCU: 0xE68C, offset: 0xE68C, size: 0x8, addend: 0x0, symName: __ZNSt3__14listI5PointNS_9allocatorIS1_EEE20__link_nodes_at_backEPNS_16__list_node_baseIS1_PvEES8_, symObjAddr: 0x14EC, symBinAddr: 0x100001F7C, symSize: 0x60 }
  - { offsetInCU: 0xE6D2, offset: 0xE6D2, size: 0x8, addend: 0x0, symName: __ZNKSt3__110unique_ptrINS_11__list_nodeI5PointPvEENS_22__allocator_destructorINS_9allocatorIS4_EEEEE3getB8ue170006Ev, symObjAddr: 0x154C, symBinAddr: 0x100001FDC, symSize: 0x28 }
  - { offsetInCU: 0xE6F8, offset: 0xE6F8, size: 0x8, addend: 0x0, symName: __ZNSt3__111__list_nodeI5PointPvE9__as_linkB8ue170006Ev, symObjAddr: 0x1574, symBinAddr: 0x100002004, symSize: 0x24 }
  - { offsetInCU: 0xE71E, offset: 0xE71E, size: 0x8, addend: 0x0, symName: __ZNSt3__110unique_ptrINS_11__list_nodeI5PointPvEENS_22__allocator_destructorINS_9allocatorIS4_EEEEE7releaseB8ue170006Ev, symObjAddr: 0x1598, symBinAddr: 0x100002028, symSize: 0x44 }
  - { offsetInCU: 0xE753, offset: 0xE753, size: 0x8, addend: 0x0, symName: __ZNSt3__110unique_ptrINS_11__list_nodeI5PointPvEENS_22__allocator_destructorINS_9allocatorIS4_EEEEED1B8ue170006Ev, symObjAddr: 0x15DC, symBinAddr: 0x10000206C, symSize: 0x2C }
  - { offsetInCU: 0xE77D, offset: 0xE77D, size: 0x8, addend: 0x0, symName: __ZNSt3__116allocator_traitsINS_9allocatorINS_11__list_nodeI5PointPvEEEEE8allocateB8ue170006ERS6_m, symObjAddr: 0x1608, symBinAddr: 0x100002098, symSize: 0x2C }
  - { offsetInCU: 0xE7B0, offset: 0xE7B0, size: 0x8, addend: 0x0, symName: __ZNSt3__122__allocator_destructorINS_9allocatorINS_11__list_nodeI5PointPvEEEEEC1B8ue170006ERS6_m, symObjAddr: 0x1634, symBinAddr: 0x1000020C4, symSize: 0x3C }
  - { offsetInCU: 0xE7FB, offset: 0xE7FB, size: 0x8, addend: 0x0, symName: __ZNSt3__110unique_ptrINS_11__list_nodeI5PointPvEENS_22__allocator_destructorINS_9allocatorIS4_EEEEEC1B8ue170006ILb1EvEEPS4_NS_16__dependent_typeINS_27__unique_ptr_deleter_sfinaeIS8_EEXT_EE20__good_rval_ref_typeE, symObjAddr: 0x1670, symBinAddr: 0x100002100, symSize: 0x3C }
  - { offsetInCU: 0xE84C, offset: 0xE84C, size: 0x8, addend: 0x0, symName: __ZNSt3__19allocatorINS_11__list_nodeI5PointPvEEE8allocateB8ue170006Em, symObjAddr: 0x16AC, symBinAddr: 0x10000213C, symSize: 0x8C }
  - { offsetInCU: 0xE88A, offset: 0xE88A, size: 0x8, addend: 0x0, symName: __ZNSt3__116allocator_traitsINS_9allocatorINS_11__list_nodeI5PointPvEEEEE8max_sizeB8ue170006IS6_vEEmRKS6_, symObjAddr: 0x1738, symBinAddr: 0x1000021C8, symSize: 0x24 }
  - { offsetInCU: 0xE8B8, offset: 0xE8B8, size: 0x8, addend: 0x0, symName: __ZNKSt3__19allocatorINS_11__list_nodeI5PointPvEEE8max_sizeB8ue170006Ev, symObjAddr: 0x17B8, symBinAddr: 0x100002248, symSize: 0x18 }
  - { offsetInCU: 0xE8DE, offset: 0xE8DE, size: 0x8, addend: 0x0, symName: __ZNSt3__122__allocator_destructorINS_9allocatorINS_11__list_nodeI5PointPvEEEEEC2B8ue170006ERS6_m, symObjAddr: 0x17F4, symBinAddr: 0x100002284, symSize: 0x2C }
  - { offsetInCU: 0xE924, offset: 0xE924, size: 0x8, addend: 0x0, symName: __ZNSt3__110unique_ptrINS_11__list_nodeI5PointPvEENS_22__allocator_destructorINS_9allocatorIS4_EEEEEC2B8ue170006ILb1EvEEPS4_NS_16__dependent_typeINS_27__unique_ptr_deleter_sfinaeIS8_EEXT_EE20__good_rval_ref_typeE, symObjAddr: 0x1820, symBinAddr: 0x1000022B0, symSize: 0x5C }
  - { offsetInCU: 0xE975, offset: 0xE975, size: 0x8, addend: 0x0, symName: __ZNSt3__117__compressed_pairIPNS_11__list_nodeI5PointPvEENS_22__allocator_destructorINS_9allocatorIS4_EEEEEC1B8ue170006IRS5_S9_EEOT_OT0_, symObjAddr: 0x187C, symBinAddr: 0x10000230C, symSize: 0x3C }
  - { offsetInCU: 0xE9CD, offset: 0xE9CD, size: 0x8, addend: 0x0, symName: __ZNSt3__117__compressed_pairIPNS_11__list_nodeI5PointPvEENS_22__allocator_destructorINS_9allocatorIS4_EEEEEC2B8ue170006IRS5_S9_EEOT_OT0_, symObjAddr: 0x18B8, symBinAddr: 0x100002348, symSize: 0x48 }
  - { offsetInCU: 0xEA25, offset: 0xEA25, size: 0x8, addend: 0x0, symName: __ZNSt3__122__compressed_pair_elemIPNS_11__list_nodeI5PointPvEELi0ELb0EEC2B8ue170006IRS5_vEEOT_, symObjAddr: 0x1900, symBinAddr: 0x100002390, symSize: 0x24 }
  - { offsetInCU: 0xEA67, offset: 0xEA67, size: 0x8, addend: 0x0, symName: __ZNSt3__122__compressed_pair_elemINS_22__allocator_destructorINS_9allocatorINS_11__list_nodeI5PointPvEEEEEELi1ELb0EEC2B8ue170006IS8_vEEOT_, symObjAddr: 0x1924, symBinAddr: 0x1000023B4, symSize: 0x24 }
  - { offsetInCU: 0xEAA9, offset: 0xEAA9, size: 0x8, addend: 0x0, symName: __ZNSt3__19allocatorINS_11__list_nodeI5PointPvEEE9constructB8ue170006IS2_JRKS2_EEEvPT_DpOT0_, symObjAddr: 0x1948, symBinAddr: 0x1000023D8, symSize: 0x28 }
  - { offsetInCU: 0xEAFF, offset: 0xEAFF, size: 0x8, addend: 0x0, symName: __ZNKSt3__117__compressed_pairIPNS_11__list_nodeI5PointPvEENS_22__allocator_destructorINS_9allocatorIS4_EEEEE5firstB8ue170006Ev, symObjAddr: 0x1970, symBinAddr: 0x100002400, symSize: 0x24 }
  - { offsetInCU: 0xEB25, offset: 0xEB25, size: 0x8, addend: 0x0, symName: __ZNKSt3__122__compressed_pair_elemIPNS_11__list_nodeI5PointPvEELi0ELb0EE5__getB8ue170006Ev, symObjAddr: 0x1994, symBinAddr: 0x100002424, symSize: 0x14 }
  - { offsetInCU: 0xEB4B, offset: 0xEB4B, size: 0x8, addend: 0x0, symName: __ZNSt3__117__compressed_pairIPNS_11__list_nodeI5PointPvEENS_22__allocator_destructorINS_9allocatorIS4_EEEEE5firstB8ue170006Ev, symObjAddr: 0x19A8, symBinAddr: 0x100002438, symSize: 0x24 }
  - { offsetInCU: 0xEB71, offset: 0xEB71, size: 0x8, addend: 0x0, symName: __ZNSt3__122__compressed_pair_elemIPNS_11__list_nodeI5PointPvEELi0ELb0EE5__getB8ue170006Ev, symObjAddr: 0x19CC, symBinAddr: 0x10000245C, symSize: 0x14 }
  - { offsetInCU: 0xEB97, offset: 0xEB97, size: 0x8, addend: 0x0, symName: __ZNSt3__110unique_ptrINS_11__list_nodeI5PointPvEENS_22__allocator_destructorINS_9allocatorIS4_EEEEED2B8ue170006Ev, symObjAddr: 0x19E0, symBinAddr: 0x100002470, symSize: 0x30 }
  - { offsetInCU: 0xEBC1, offset: 0xEBC1, size: 0x8, addend: 0x0, symName: __ZNSt3__110unique_ptrINS_11__list_nodeI5PointPvEENS_22__allocator_destructorINS_9allocatorIS4_EEEEE5resetB8ue170006EPS4_, symObjAddr: 0x1A10, symBinAddr: 0x1000024A0, symSize: 0x78 }
  - { offsetInCU: 0xEC05, offset: 0xEC05, size: 0x8, addend: 0x0, symName: __ZNSt3__117__compressed_pairIPNS_11__list_nodeI5PointPvEENS_22__allocator_destructorINS_9allocatorIS4_EEEEE6secondB8ue170006Ev, symObjAddr: 0x1A88, symBinAddr: 0x100002518, symSize: 0x28 }
  - { offsetInCU: 0xEC2B, offset: 0xEC2B, size: 0x8, addend: 0x0, symName: __ZNSt3__122__allocator_destructorINS_9allocatorINS_11__list_nodeI5PointPvEEEEEclB8ue170006EPS5_, symObjAddr: 0x1AB0, symBinAddr: 0x100002540, symSize: 0x34 }
  - { offsetInCU: 0xEC5F, offset: 0xEC5F, size: 0x8, addend: 0x0, symName: __ZNSt3__122__compressed_pair_elemINS_22__allocator_destructorINS_9allocatorINS_11__list_nodeI5PointPvEEEEEELi1ELb0EE5__getB8ue170006Ev, symObjAddr: 0x1AE4, symBinAddr: 0x100002574, symSize: 0x14 }
  - { offsetInCU: 0xEC85, offset: 0xEC85, size: 0x8, addend: 0x0, symName: __ZNSt3__16vectorI11GRID_STATUSNS_9allocatorIS1_EEEC2EmRKS1_, symObjAddr: 0x1AF8, symBinAddr: 0x100002588, symSize: 0xE4 }
  - { offsetInCU: 0xECE9, offset: 0xECE9, size: 0x8, addend: 0x0, symName: __ZNSt3__117__compressed_pairIP11GRID_STATUSNS_9allocatorIS1_EEEC1B8ue170006IDnNS_18__default_init_tagEEEOT_OT0_, symObjAddr: 0x1BDC, symBinAddr: 0x10000266C, symSize: 0x3C }
  - { offsetInCU: 0xED41, offset: 0xED41, size: 0x8, addend: 0x0, symName: __ZNSt3__16vectorI11GRID_STATUSNS_9allocatorIS1_EEE16__destroy_vectorC1B8ue170006ERS4_, symObjAddr: 0x1C58, symBinAddr: 0x1000026E8, symSize: 0x34 }
  - { offsetInCU: 0xED7A, offset: 0xED7A, size: 0x8, addend: 0x0, symName: __ZNSt3__16vectorI11GRID_STATUSNS_9allocatorIS1_EEE11__vallocateB8ue170006Em, symObjAddr: 0x1C8C, symBinAddr: 0x10000271C, symSize: 0xAC }
  - { offsetInCU: 0xEDBE, offset: 0xEDBE, size: 0x8, addend: 0x0, symName: __ZNSt3__16vectorI11GRID_STATUSNS_9allocatorIS1_EEE18__construct_at_endEmRKS1_, symObjAddr: 0x1D38, symBinAddr: 0x1000027C8, symSize: 0xD8 }
  - { offsetInCU: 0xEE40, offset: 0xEE40, size: 0x8, addend: 0x0, symName: __ZNSt3__128__exception_guard_exceptionsINS_6vectorI11GRID_STATUSNS_9allocatorIS2_EEE16__destroy_vectorEE10__completeB8ue170006Ev, symObjAddr: 0x1E10, symBinAddr: 0x1000028A0, symSize: 0x1C }
  - { offsetInCU: 0xEE66, offset: 0xEE66, size: 0x8, addend: 0x0, symName: __ZNSt3__128__exception_guard_exceptionsINS_6vectorI11GRID_STATUSNS_9allocatorIS2_EEE16__destroy_vectorEED1B8ue170006Ev, symObjAddr: 0x1E2C, symBinAddr: 0x1000028BC, symSize: 0x2C }
  - { offsetInCU: 0xEE90, offset: 0xEE90, size: 0x8, addend: 0x0, symName: __ZNSt3__117__compressed_pairIP11GRID_STATUSNS_9allocatorIS1_EEEC2B8ue170006IDnNS_18__default_init_tagEEEOT_OT0_, symObjAddr: 0x1E58, symBinAddr: 0x1000028E8, symSize: 0x40 }
  - { offsetInCU: 0xEEE8, offset: 0xEEE8, size: 0x8, addend: 0x0, symName: __ZNSt3__122__compressed_pair_elemIP11GRID_STATUSLi0ELb0EEC2B8ue170006IDnvEEOT_, symObjAddr: 0x1E98, symBinAddr: 0x100002928, symSize: 0x1C }
  - { offsetInCU: 0xEF2A, offset: 0xEF2A, size: 0x8, addend: 0x0, symName: __ZNSt3__122__compressed_pair_elemINS_9allocatorI11GRID_STATUSEELi1ELb1EEC2B8ue170006ENS_18__default_init_tagE, symObjAddr: 0x1EB4, symBinAddr: 0x100002944, symSize: 0x2C }
  - { offsetInCU: 0xEF5E, offset: 0xEF5E, size: 0x8, addend: 0x0, symName: __ZNSt3__19allocatorI11GRID_STATUSEC2B8ue170006Ev, symObjAddr: 0x1EE0, symBinAddr: 0x100002970, symSize: 0x2C }
  - { offsetInCU: 0xEF88, offset: 0xEF88, size: 0x8, addend: 0x0, symName: __ZNSt3__116__non_trivial_ifILb1ENS_9allocatorI11GRID_STATUSEEEC2B8ue170006Ev, symObjAddr: 0x1F0C, symBinAddr: 0x10000299C, symSize: 0x14 }
  - { offsetInCU: 0xEFB2, offset: 0xEFB2, size: 0x8, addend: 0x0, symName: __ZNSt3__128__exception_guard_exceptionsINS_6vectorI11GRID_STATUSNS_9allocatorIS2_EEE16__destroy_vectorEEC1B8ue170006ES6_, symObjAddr: 0x1F20, symBinAddr: 0x1000029B0, symSize: 0x34 }
  - { offsetInCU: 0xEFEA, offset: 0xEFEA, size: 0x8, addend: 0x0, symName: __ZNSt3__128__exception_guard_exceptionsINS_6vectorI11GRID_STATUSNS_9allocatorIS2_EEE16__destroy_vectorEEC2B8ue170006ES6_, symObjAddr: 0x1F54, symBinAddr: 0x1000029E4, symSize: 0x24 }
  - { offsetInCU: 0xF022, offset: 0xF022, size: 0x8, addend: 0x0, symName: __ZNSt3__16vectorI11GRID_STATUSNS_9allocatorIS1_EEE16__destroy_vectorC2B8ue170006ERS4_, symObjAddr: 0x1F78, symBinAddr: 0x100002A08, symSize: 0x20 }
  - { offsetInCU: 0xF05B, offset: 0xF05B, size: 0x8, addend: 0x0, symName: __ZNKSt3__16vectorI11GRID_STATUSNS_9allocatorIS1_EEE8max_sizeEv, symObjAddr: 0x1F98, symBinAddr: 0x100002A28, symSize: 0x74 }
  - { offsetInCU: 0xF083, offset: 0xF083, size: 0x8, addend: 0x0, symName: __ZNKSt3__16vectorI11GRID_STATUSNS_9allocatorIS1_EEE20__throw_length_errorB8ue170006Ev, symObjAddr: 0x200C, symBinAddr: 0x100002A9C, symSize: 0x1C }
  - { offsetInCU: 0xF0A9, offset: 0xF0A9, size: 0x8, addend: 0x0, symName: __ZNSt3__16vectorI11GRID_STATUSNS_9allocatorIS1_EEE7__allocB8ue170006Ev, symObjAddr: 0x2068, symBinAddr: 0x100002AF8, symSize: 0x28 }
  - { offsetInCU: 0xF0CF, offset: 0xF0CF, size: 0x8, addend: 0x0, symName: __ZNSt3__16vectorI11GRID_STATUSNS_9allocatorIS1_EEE9__end_capB8ue170006Ev, symObjAddr: 0x2090, symBinAddr: 0x100002B20, symSize: 0x28 }
  - { offsetInCU: 0xF0F5, offset: 0xF0F5, size: 0x8, addend: 0x0, symName: __ZNKSt3__16vectorI11GRID_STATUSNS_9allocatorIS1_EEE14__annotate_newB8ue170006Em, symObjAddr: 0x20B8, symBinAddr: 0x100002B48, symSize: 0xAC }
  - { offsetInCU: 0xF134, offset: 0xF134, size: 0x8, addend: 0x0, symName: __ZNSt3__116allocator_traitsINS_9allocatorI11GRID_STATUSEEE8max_sizeB8ue170006IS3_vEEmRKS3_, symObjAddr: 0x2190, symBinAddr: 0x100002C20, symSize: 0x24 }
  - { offsetInCU: 0xF162, offset: 0xF162, size: 0x8, addend: 0x0, symName: __ZNKSt3__16vectorI11GRID_STATUSNS_9allocatorIS1_EEE7__allocB8ue170006Ev, symObjAddr: 0x21B4, symBinAddr: 0x100002C44, symSize: 0x28 }
  - { offsetInCU: 0xF188, offset: 0xF188, size: 0x8, addend: 0x0, symName: __ZNSt3__114numeric_limitsIlE3maxB8ue170006Ev, symObjAddr: 0x21DC, symBinAddr: 0x100002C6C, symSize: 0x14 }
  - { offsetInCU: 0xF1A6, offset: 0xF1A6, size: 0x8, addend: 0x0, symName: __ZNKSt3__16__lessIvvEclB8ue170006ImmEEbRKT_RKT0_, symObjAddr: 0x2244, symBinAddr: 0x100002CD4, symSize: 0x34 }
  - { offsetInCU: 0xF1FA, offset: 0xF1FA, size: 0x8, addend: 0x0, symName: __ZNKSt3__19allocatorI11GRID_STATUSE8max_sizeB8ue170006Ev, symObjAddr: 0x2278, symBinAddr: 0x100002D08, symSize: 0x14 }
  - { offsetInCU: 0xF220, offset: 0xF220, size: 0x8, addend: 0x0, symName: __ZNKSt3__117__compressed_pairIP11GRID_STATUSNS_9allocatorIS1_EEE6secondB8ue170006Ev, symObjAddr: 0x228C, symBinAddr: 0x100002D1C, symSize: 0x24 }
  - { offsetInCU: 0xF246, offset: 0xF246, size: 0x8, addend: 0x0, symName: __ZNKSt3__122__compressed_pair_elemINS_9allocatorI11GRID_STATUSEELi1ELb1EE5__getB8ue170006Ev, symObjAddr: 0x22B0, symBinAddr: 0x100002D40, symSize: 0x14 }
  - { offsetInCU: 0xF26C, offset: 0xF26C, size: 0x8, addend: 0x0, symName: __ZNSt3__123__libcpp_numeric_limitsIlLb1EE3maxB8ue170006Ev, symObjAddr: 0x22C4, symBinAddr: 0x100002D54, symSize: 0x8 }
  - { offsetInCU: 0xF280, offset: 0xF280, size: 0x8, addend: 0x0, symName: __ZNSt12length_errorC1B8ue170006EPKc, symObjAddr: 0x2330, symBinAddr: 0x100002DC0, symSize: 0x34 }
  - { offsetInCU: 0xF2B8, offset: 0xF2B8, size: 0x8, addend: 0x0, symName: __ZNSt12length_errorC2B8ue170006EPKc, symObjAddr: 0x2364, symBinAddr: 0x100002DF4, symSize: 0x4C }
  - { offsetInCU: 0xF2F0, offset: 0xF2F0, size: 0x8, addend: 0x0, symName: __ZNSt3__19allocatorI11GRID_STATUSE8allocateB8ue170006Em, symObjAddr: 0x23B0, symBinAddr: 0x100002E40, symSize: 0x84 }
  - { offsetInCU: 0xF324, offset: 0xF324, size: 0x8, addend: 0x0, symName: __ZNSt3__117__compressed_pairIP11GRID_STATUSNS_9allocatorIS1_EEE6secondB8ue170006Ev, symObjAddr: 0x2434, symBinAddr: 0x100002EC4, symSize: 0x24 }
  - { offsetInCU: 0xF34A, offset: 0xF34A, size: 0x8, addend: 0x0, symName: __ZNSt3__122__compressed_pair_elemINS_9allocatorI11GRID_STATUSEELi1ELb1EE5__getB8ue170006Ev, symObjAddr: 0x2458, symBinAddr: 0x100002EE8, symSize: 0x14 }
  - { offsetInCU: 0xF370, offset: 0xF370, size: 0x8, addend: 0x0, symName: __ZNSt3__117__compressed_pairIP11GRID_STATUSNS_9allocatorIS1_EEE5firstB8ue170006Ev, symObjAddr: 0x246C, symBinAddr: 0x100002EFC, symSize: 0x24 }
  - { offsetInCU: 0xF396, offset: 0xF396, size: 0x8, addend: 0x0, symName: __ZNSt3__122__compressed_pair_elemIP11GRID_STATUSLi0ELb0EE5__getB8ue170006Ev, symObjAddr: 0x2490, symBinAddr: 0x100002F20, symSize: 0x14 }
  - { offsetInCU: 0xF3BC, offset: 0xF3BC, size: 0x8, addend: 0x0, symName: __ZNKSt3__16vectorI11GRID_STATUSNS_9allocatorIS1_EEE31__annotate_contiguous_containerB8ue170006EPKvS6_S6_S6_, symObjAddr: 0x24A4, symBinAddr: 0x100002F34, symSize: 0x20 }
  - { offsetInCU: 0xF412, offset: 0xF412, size: 0x8, addend: 0x0, symName: __ZNKSt3__16vectorI11GRID_STATUSNS_9allocatorIS1_EEE4dataB8ue170006Ev, symObjAddr: 0x24C4, symBinAddr: 0x100002F54, symSize: 0x28 }
  - { offsetInCU: 0xF438, offset: 0xF438, size: 0x8, addend: 0x0, symName: __ZNKSt3__16vectorI11GRID_STATUSNS_9allocatorIS1_EEE8capacityB8ue170006Ev, symObjAddr: 0x24EC, symBinAddr: 0x100002F7C, symSize: 0x40 }
  - { offsetInCU: 0xF45E, offset: 0xF45E, size: 0x8, addend: 0x0, symName: __ZNKSt3__16vectorI11GRID_STATUSNS_9allocatorIS1_EEE9__end_capB8ue170006Ev, symObjAddr: 0x2540, symBinAddr: 0x100002FD0, symSize: 0x28 }
  - { offsetInCU: 0xF484, offset: 0xF484, size: 0x8, addend: 0x0, symName: __ZNKSt3__117__compressed_pairIP11GRID_STATUSNS_9allocatorIS1_EEE5firstB8ue170006Ev, symObjAddr: 0x2568, symBinAddr: 0x100002FF8, symSize: 0x24 }
  - { offsetInCU: 0xF4AA, offset: 0xF4AA, size: 0x8, addend: 0x0, symName: __ZNKSt3__122__compressed_pair_elemIP11GRID_STATUSLi0ELb0EE5__getB8ue170006Ev, symObjAddr: 0x258C, symBinAddr: 0x10000301C, symSize: 0x14 }
  - { offsetInCU: 0xF4E9, offset: 0xF4E9, size: 0x8, addend: 0x0, symName: __ZNSt3__16vectorI11GRID_STATUSNS_9allocatorIS1_EEE21_ConstructTransactionC1B8ue170006ERS4_m, symObjAddr: 0x25A0, symBinAddr: 0x100003030, symSize: 0x3C }
  - { offsetInCU: 0xF531, offset: 0xF531, size: 0x8, addend: 0x0, symName: __ZNSt3__116allocator_traitsINS_9allocatorI11GRID_STATUSEEE9constructB8ue170006IS2_JRKS2_EvEEvRS3_PT_DpOT0_, symObjAddr: 0x25DC, symBinAddr: 0x10000306C, symSize: 0x34 }
  - { offsetInCU: 0xF588, offset: 0xF588, size: 0x8, addend: 0x0, symName: __ZNSt3__16vectorI11GRID_STATUSNS_9allocatorIS1_EEE21_ConstructTransactionD1B8ue170006Ev, symObjAddr: 0x2610, symBinAddr: 0x1000030A0, symSize: 0x2C }
  - { offsetInCU: 0xF5B2, offset: 0xF5B2, size: 0x8, addend: 0x0, symName: __ZNSt3__16vectorI11GRID_STATUSNS_9allocatorIS1_EEE21_ConstructTransactionC2B8ue170006ERS4_m, symObjAddr: 0x263C, symBinAddr: 0x1000030CC, symSize: 0x44 }
  - { offsetInCU: 0xF5FA, offset: 0xF5FA, size: 0x8, addend: 0x0, symName: __ZNSt3__19allocatorI11GRID_STATUSE9constructB8ue170006IS1_JRKS1_EEEvPT_DpOT0_, symObjAddr: 0x2680, symBinAddr: 0x100003110, symSize: 0x28 }
  - { offsetInCU: 0xF650, offset: 0xF650, size: 0x8, addend: 0x0, symName: __ZNSt3__16vectorI11GRID_STATUSNS_9allocatorIS1_EEE21_ConstructTransactionD2B8ue170006Ev, symObjAddr: 0x26A8, symBinAddr: 0x100003138, symSize: 0x20 }
  - { offsetInCU: 0xF67A, offset: 0xF67A, size: 0x8, addend: 0x0, symName: __ZNSt3__128__exception_guard_exceptionsINS_6vectorI11GRID_STATUSNS_9allocatorIS2_EEE16__destroy_vectorEED2B8ue170006Ev, symObjAddr: 0x26C8, symBinAddr: 0x100003158, symSize: 0x48 }
  - { offsetInCU: 0xF6A4, offset: 0xF6A4, size: 0x8, addend: 0x0, symName: __ZNSt3__16vectorI11GRID_STATUSNS_9allocatorIS1_EEE16__destroy_vectorclB8ue170006Ev, symObjAddr: 0x2710, symBinAddr: 0x1000031A0, symSize: 0x90 }
  - { offsetInCU: 0xF6CA, offset: 0xF6CA, size: 0x8, addend: 0x0, symName: __ZNSt3__16vectorI11GRID_STATUSNS_9allocatorIS1_EEE7__clearB8ue170006Ev, symObjAddr: 0x27A0, symBinAddr: 0x100003230, symSize: 0x28 }
  - { offsetInCU: 0xF6F0, offset: 0xF6F0, size: 0x8, addend: 0x0, symName: __ZNKSt3__16vectorI11GRID_STATUSNS_9allocatorIS1_EEE17__annotate_deleteB8ue170006Ev, symObjAddr: 0x27C8, symBinAddr: 0x100003258, symSize: 0xB8 }
  - { offsetInCU: 0xF716, offset: 0xF716, size: 0x8, addend: 0x0, symName: __ZNSt3__116allocator_traitsINS_9allocatorI11GRID_STATUSEEE10deallocateB8ue170006ERS3_PS2_m, symObjAddr: 0x2880, symBinAddr: 0x100003310, symSize: 0x34 }
  - { offsetInCU: 0xF758, offset: 0xF758, size: 0x8, addend: 0x0, symName: __ZNSt3__16vectorI11GRID_STATUSNS_9allocatorIS1_EEE22__base_destruct_at_endB8ue170006EPS1_, symObjAddr: 0x28B4, symBinAddr: 0x100003344, symSize: 0xA0 }
  - { offsetInCU: 0xF79C, offset: 0xF79C, size: 0x8, addend: 0x0, symName: __ZNSt3__116allocator_traitsINS_9allocatorI11GRID_STATUSEEE7destroyB8ue170006IS2_vEEvRS3_PT_, symObjAddr: 0x2954, symBinAddr: 0x1000033E4, symSize: 0x2C }
  - { offsetInCU: 0xF7D9, offset: 0xF7D9, size: 0x8, addend: 0x0, symName: __ZNSt3__19allocatorI11GRID_STATUSE7destroyB8ue170006EPS1_, symObjAddr: 0x2980, symBinAddr: 0x100003410, symSize: 0x14 }
  - { offsetInCU: 0xF80D, offset: 0xF80D, size: 0x8, addend: 0x0, symName: __ZNSt3__19allocatorI11GRID_STATUSE10deallocateB8ue170006EPS1_m, symObjAddr: 0x2994, symBinAddr: 0x100003424, symSize: 0x70 }
  - { offsetInCU: 0xF84F, offset: 0xF84F, size: 0x8, addend: 0x0, symName: __ZNSt3__16vectorI11GRID_STATUSNS_9allocatorIS1_EEED2B8ue170006Ev, symObjAddr: 0x2A04, symBinAddr: 0x100003494, symSize: 0x3C }
  - { offsetInCU: 0xF879, offset: 0xF879, size: 0x8, addend: 0x0, symName: __ZNSt3__16vectorINS0_I11GRID_STATUSNS_9allocatorIS1_EEEENS2_IS4_EEEC2EmRKS4_, symObjAddr: 0x2A40, symBinAddr: 0x1000034D0, symSize: 0xE4 }
  - { offsetInCU: 0xF8D8, offset: 0xF8D8, size: 0x8, addend: 0x0, symName: __ZNSt3__117__compressed_pairIPNS_6vectorI11GRID_STATUSNS_9allocatorIS2_EEEENS3_IS5_EEEC1B8ue170006IDnNS_18__default_init_tagEEEOT_OT0_, symObjAddr: 0x2B24, symBinAddr: 0x1000035B4, symSize: 0x3C }
  - { offsetInCU: 0xF930, offset: 0xF930, size: 0x8, addend: 0x0, symName: __ZNSt3__16vectorINS0_I11GRID_STATUSNS_9allocatorIS1_EEEENS2_IS4_EEE16__destroy_vectorC1B8ue170006ERS6_, symObjAddr: 0x2BA0, symBinAddr: 0x100003630, symSize: 0x34 }
  - { offsetInCU: 0xF969, offset: 0xF969, size: 0x8, addend: 0x0, symName: __ZNSt3__16vectorINS0_I11GRID_STATUSNS_9allocatorIS1_EEEENS2_IS4_EEE11__vallocateB8ue170006Em, symObjAddr: 0x2BD4, symBinAddr: 0x100003664, symSize: 0xB4 }
  - { offsetInCU: 0xF9AD, offset: 0xF9AD, size: 0x8, addend: 0x0, symName: __ZNSt3__16vectorINS0_I11GRID_STATUSNS_9allocatorIS1_EEEENS2_IS4_EEE18__construct_at_endEmRKS4_, symObjAddr: 0x2C88, symBinAddr: 0x100003718, symSize: 0xD8 }
  - { offsetInCU: 0xFA2F, offset: 0xFA2F, size: 0x8, addend: 0x0, symName: __ZNSt3__128__exception_guard_exceptionsINS_6vectorINS1_I11GRID_STATUSNS_9allocatorIS2_EEEENS3_IS5_EEE16__destroy_vectorEE10__completeB8ue170006Ev, symObjAddr: 0x2D60, symBinAddr: 0x1000037F0, symSize: 0x1C }
  - { offsetInCU: 0xFA55, offset: 0xFA55, size: 0x8, addend: 0x0, symName: __ZNSt3__128__exception_guard_exceptionsINS_6vectorINS1_I11GRID_STATUSNS_9allocatorIS2_EEEENS3_IS5_EEE16__destroy_vectorEED1B8ue170006Ev, symObjAddr: 0x2D7C, symBinAddr: 0x10000380C, symSize: 0x2C }
  - { offsetInCU: 0xFA7F, offset: 0xFA7F, size: 0x8, addend: 0x0, symName: __ZNSt3__117__compressed_pairIPNS_6vectorI11GRID_STATUSNS_9allocatorIS2_EEEENS3_IS5_EEEC2B8ue170006IDnNS_18__default_init_tagEEEOT_OT0_, symObjAddr: 0x2DA8, symBinAddr: 0x100003838, symSize: 0x40 }
  - { offsetInCU: 0xFAD7, offset: 0xFAD7, size: 0x8, addend: 0x0, symName: __ZNSt3__122__compressed_pair_elemIPNS_6vectorI11GRID_STATUSNS_9allocatorIS2_EEEELi0ELb0EEC2B8ue170006IDnvEEOT_, symObjAddr: 0x2DE8, symBinAddr: 0x100003878, symSize: 0x1C }
  - { offsetInCU: 0xFB19, offset: 0xFB19, size: 0x8, addend: 0x0, symName: __ZNSt3__122__compressed_pair_elemINS_9allocatorINS_6vectorI11GRID_STATUSNS1_IS3_EEEEEELi1ELb1EEC2B8ue170006ENS_18__default_init_tagE, symObjAddr: 0x2E04, symBinAddr: 0x100003894, symSize: 0x2C }
  - { offsetInCU: 0xFB4D, offset: 0xFB4D, size: 0x8, addend: 0x0, symName: __ZNSt3__19allocatorINS_6vectorI11GRID_STATUSNS0_IS2_EEEEEC2B8ue170006Ev, symObjAddr: 0x2E30, symBinAddr: 0x1000038C0, symSize: 0x2C }
  - { offsetInCU: 0xFB77, offset: 0xFB77, size: 0x8, addend: 0x0, symName: __ZNSt3__116__non_trivial_ifILb1ENS_9allocatorINS_6vectorI11GRID_STATUSNS1_IS3_EEEEEEEC2B8ue170006Ev, symObjAddr: 0x2E5C, symBinAddr: 0x1000038EC, symSize: 0x14 }
  - { offsetInCU: 0xFBA1, offset: 0xFBA1, size: 0x8, addend: 0x0, symName: __ZNSt3__128__exception_guard_exceptionsINS_6vectorINS1_I11GRID_STATUSNS_9allocatorIS2_EEEENS3_IS5_EEE16__destroy_vectorEEC1B8ue170006ES8_, symObjAddr: 0x2E70, symBinAddr: 0x100003900, symSize: 0x34 }
  - { offsetInCU: 0xFBD9, offset: 0xFBD9, size: 0x8, addend: 0x0, symName: __ZNSt3__128__exception_guard_exceptionsINS_6vectorINS1_I11GRID_STATUSNS_9allocatorIS2_EEEENS3_IS5_EEE16__destroy_vectorEEC2B8ue170006ES8_, symObjAddr: 0x2EA4, symBinAddr: 0x100003934, symSize: 0x24 }
  - { offsetInCU: 0xFC11, offset: 0xFC11, size: 0x8, addend: 0x0, symName: __ZNSt3__16vectorINS0_I11GRID_STATUSNS_9allocatorIS1_EEEENS2_IS4_EEE16__destroy_vectorC2B8ue170006ERS6_, symObjAddr: 0x2EC8, symBinAddr: 0x100003958, symSize: 0x20 }
  - { offsetInCU: 0xFC4A, offset: 0xFC4A, size: 0x8, addend: 0x0, symName: __ZNKSt3__16vectorINS0_I11GRID_STATUSNS_9allocatorIS1_EEEENS2_IS4_EEE8max_sizeEv, symObjAddr: 0x2EE8, symBinAddr: 0x100003978, symSize: 0x74 }
  - { offsetInCU: 0xFC72, offset: 0xFC72, size: 0x8, addend: 0x0, symName: __ZNKSt3__16vectorINS0_I11GRID_STATUSNS_9allocatorIS1_EEEENS2_IS4_EEE20__throw_length_errorB8ue170006Ev, symObjAddr: 0x2F5C, symBinAddr: 0x1000039EC, symSize: 0x1C }
  - { offsetInCU: 0xFC98, offset: 0xFC98, size: 0x8, addend: 0x0, symName: __ZNSt3__16vectorINS0_I11GRID_STATUSNS_9allocatorIS1_EEEENS2_IS4_EEE7__allocB8ue170006Ev, symObjAddr: 0x2FB8, symBinAddr: 0x100003A48, symSize: 0x28 }
  - { offsetInCU: 0xFCBE, offset: 0xFCBE, size: 0x8, addend: 0x0, symName: __ZNSt3__16vectorINS0_I11GRID_STATUSNS_9allocatorIS1_EEEENS2_IS4_EEE9__end_capB8ue170006Ev, symObjAddr: 0x2FE0, symBinAddr: 0x100003A70, symSize: 0x28 }
  - { offsetInCU: 0xFCE4, offset: 0xFCE4, size: 0x8, addend: 0x0, symName: __ZNKSt3__16vectorINS0_I11GRID_STATUSNS_9allocatorIS1_EEEENS2_IS4_EEE14__annotate_newB8ue170006Em, symObjAddr: 0x3008, symBinAddr: 0x100003A98, symSize: 0xC8 }
  - { offsetInCU: 0xFD23, offset: 0xFD23, size: 0x8, addend: 0x0, symName: __ZNSt3__116allocator_traitsINS_9allocatorINS_6vectorI11GRID_STATUSNS1_IS3_EEEEEEE8max_sizeB8ue170006IS6_vEEmRKS6_, symObjAddr: 0x30D0, symBinAddr: 0x100003B60, symSize: 0x24 }
  - { offsetInCU: 0xFD51, offset: 0xFD51, size: 0x8, addend: 0x0, symName: __ZNKSt3__16vectorINS0_I11GRID_STATUSNS_9allocatorIS1_EEEENS2_IS4_EEE7__allocB8ue170006Ev, symObjAddr: 0x30F4, symBinAddr: 0x100003B84, symSize: 0x28 }
  - { offsetInCU: 0xFD77, offset: 0xFD77, size: 0x8, addend: 0x0, symName: __ZNKSt3__19allocatorINS_6vectorI11GRID_STATUSNS0_IS2_EEEEE8max_sizeB8ue170006Ev, symObjAddr: 0x311C, symBinAddr: 0x100003BAC, symSize: 0x18 }
  - { offsetInCU: 0xFD9D, offset: 0xFD9D, size: 0x8, addend: 0x0, symName: __ZNKSt3__117__compressed_pairIPNS_6vectorI11GRID_STATUSNS_9allocatorIS2_EEEENS3_IS5_EEE6secondB8ue170006Ev, symObjAddr: 0x3134, symBinAddr: 0x100003BC4, symSize: 0x24 }
  - { offsetInCU: 0xFDC3, offset: 0xFDC3, size: 0x8, addend: 0x0, symName: __ZNKSt3__122__compressed_pair_elemINS_9allocatorINS_6vectorI11GRID_STATUSNS1_IS3_EEEEEELi1ELb1EE5__getB8ue170006Ev, symObjAddr: 0x3158, symBinAddr: 0x100003BE8, symSize: 0x14 }
  - { offsetInCU: 0xFDE9, offset: 0xFDE9, size: 0x8, addend: 0x0, symName: __ZNSt3__19allocatorINS_6vectorI11GRID_STATUSNS0_IS2_EEEEE8allocateB8ue170006Em, symObjAddr: 0x316C, symBinAddr: 0x100003BFC, symSize: 0x8C }
  - { offsetInCU: 0xFE1D, offset: 0xFE1D, size: 0x8, addend: 0x0, symName: __ZNSt3__117__compressed_pairIPNS_6vectorI11GRID_STATUSNS_9allocatorIS2_EEEENS3_IS5_EEE6secondB8ue170006Ev, symObjAddr: 0x31F8, symBinAddr: 0x100003C88, symSize: 0x24 }
  - { offsetInCU: 0xFE43, offset: 0xFE43, size: 0x8, addend: 0x0, symName: __ZNSt3__122__compressed_pair_elemINS_9allocatorINS_6vectorI11GRID_STATUSNS1_IS3_EEEEEELi1ELb1EE5__getB8ue170006Ev, symObjAddr: 0x321C, symBinAddr: 0x100003CAC, symSize: 0x14 }
  - { offsetInCU: 0xFE69, offset: 0xFE69, size: 0x8, addend: 0x0, symName: __ZNSt3__117__compressed_pairIPNS_6vectorI11GRID_STATUSNS_9allocatorIS2_EEEENS3_IS5_EEE5firstB8ue170006Ev, symObjAddr: 0x3230, symBinAddr: 0x100003CC0, symSize: 0x24 }
  - { offsetInCU: 0xFE8F, offset: 0xFE8F, size: 0x8, addend: 0x0, symName: __ZNSt3__122__compressed_pair_elemIPNS_6vectorI11GRID_STATUSNS_9allocatorIS2_EEEELi0ELb0EE5__getB8ue170006Ev, symObjAddr: 0x3254, symBinAddr: 0x100003CE4, symSize: 0x14 }
  - { offsetInCU: 0xFEB5, offset: 0xFEB5, size: 0x8, addend: 0x0, symName: __ZNKSt3__16vectorINS0_I11GRID_STATUSNS_9allocatorIS1_EEEENS2_IS4_EEE31__annotate_contiguous_containerB8ue170006EPKvS8_S8_S8_, symObjAddr: 0x3268, symBinAddr: 0x100003CF8, symSize: 0x20 }
  - { offsetInCU: 0xFF0B, offset: 0xFF0B, size: 0x8, addend: 0x0, symName: __ZNKSt3__16vectorINS0_I11GRID_STATUSNS_9allocatorIS1_EEEENS2_IS4_EEE4dataB8ue170006Ev, symObjAddr: 0x3288, symBinAddr: 0x100003D18, symSize: 0x28 }
  - { offsetInCU: 0xFF31, offset: 0xFF31, size: 0x8, addend: 0x0, symName: __ZNKSt3__16vectorINS0_I11GRID_STATUSNS_9allocatorIS1_EEEENS2_IS4_EEE8capacityB8ue170006Ev, symObjAddr: 0x32B0, symBinAddr: 0x100003D40, symSize: 0x40 }
  - { offsetInCU: 0xFF57, offset: 0xFF57, size: 0x8, addend: 0x0, symName: __ZNKSt3__16vectorINS0_I11GRID_STATUSNS_9allocatorIS1_EEEENS2_IS4_EEE9__end_capB8ue170006Ev, symObjAddr: 0x3304, symBinAddr: 0x100003D94, symSize: 0x28 }
  - { offsetInCU: 0xFF7D, offset: 0xFF7D, size: 0x8, addend: 0x0, symName: __ZNKSt3__117__compressed_pairIPNS_6vectorI11GRID_STATUSNS_9allocatorIS2_EEEENS3_IS5_EEE5firstB8ue170006Ev, symObjAddr: 0x332C, symBinAddr: 0x100003DBC, symSize: 0x24 }
  - { offsetInCU: 0xFFA3, offset: 0xFFA3, size: 0x8, addend: 0x0, symName: __ZNKSt3__122__compressed_pair_elemIPNS_6vectorI11GRID_STATUSNS_9allocatorIS2_EEEELi0ELb0EE5__getB8ue170006Ev, symObjAddr: 0x3350, symBinAddr: 0x100003DE0, symSize: 0x14 }
  - { offsetInCU: 0xFFE2, offset: 0xFFE2, size: 0x8, addend: 0x0, symName: __ZNSt3__16vectorINS0_I11GRID_STATUSNS_9allocatorIS1_EEEENS2_IS4_EEE21_ConstructTransactionC1B8ue170006ERS6_m, symObjAddr: 0x3364, symBinAddr: 0x100003DF4, symSize: 0x3C }
  - { offsetInCU: 0x1002A, offset: 0x1002A, size: 0x8, addend: 0x0, symName: __ZNSt3__116allocator_traitsINS_9allocatorINS_6vectorI11GRID_STATUSNS1_IS3_EEEEEEE9constructB8ue170006IS5_JRKS5_EvEEvRS6_PT_DpOT0_, symObjAddr: 0x33A0, symBinAddr: 0x100003E30, symSize: 0x34 }
  - { offsetInCU: 0x10081, offset: 0x10081, size: 0x8, addend: 0x0, symName: __ZNSt3__16vectorINS0_I11GRID_STATUSNS_9allocatorIS1_EEEENS2_IS4_EEE21_ConstructTransactionD1B8ue170006Ev, symObjAddr: 0x33D4, symBinAddr: 0x100003E64, symSize: 0x2C }
  - { offsetInCU: 0x100AB, offset: 0x100AB, size: 0x8, addend: 0x0, symName: __ZNSt3__16vectorINS0_I11GRID_STATUSNS_9allocatorIS1_EEEENS2_IS4_EEE21_ConstructTransactionC2B8ue170006ERS6_m, symObjAddr: 0x3400, symBinAddr: 0x100003E90, symSize: 0x4C }
  - { offsetInCU: 0x100F3, offset: 0x100F3, size: 0x8, addend: 0x0, symName: __ZNSt3__19allocatorINS_6vectorI11GRID_STATUSNS0_IS2_EEEEE9constructB8ue170006IS4_JRKS4_EEEvPT_DpOT0_, symObjAddr: 0x344C, symBinAddr: 0x100003EDC, symSize: 0x30 }
  - { offsetInCU: 0x10149, offset: 0x10149, size: 0x8, addend: 0x0, symName: __ZNSt3__16vectorI11GRID_STATUSNS_9allocatorIS1_EEEC1ERKS4_, symObjAddr: 0x347C, symBinAddr: 0x100003F0C, symSize: 0x34 }
  - { offsetInCU: 0x10184, offset: 0x10184, size: 0x8, addend: 0x0, symName: __ZNSt3__16vectorI11GRID_STATUSNS_9allocatorIS1_EEEC2ERKS4_, symObjAddr: 0x34B0, symBinAddr: 0x100003F40, symSize: 0x94 }
  - { offsetInCU: 0x101BF, offset: 0x101BF, size: 0x8, addend: 0x0, symName: __ZNSt3__116allocator_traitsINS_9allocatorI11GRID_STATUSEEE37select_on_container_copy_constructionB8ue170006IS3_vvEES3_RKS3_, symObjAddr: 0x3544, symBinAddr: 0x100003FD4, symSize: 0x10 }
  - { offsetInCU: 0x101F3, offset: 0x101F3, size: 0x8, addend: 0x0, symName: __ZNSt3__117__compressed_pairIP11GRID_STATUSNS_9allocatorIS1_EEEC1B8ue170006IDnS4_EEOT_OT0_, symObjAddr: 0x3554, symBinAddr: 0x100003FE4, symSize: 0x3C }
  - { offsetInCU: 0x1024B, offset: 0x1024B, size: 0x8, addend: 0x0, symName: __ZNSt3__16vectorI11GRID_STATUSNS_9allocatorIS1_EEE16__init_with_sizeB8ue170006IPS1_S6_EEvT_T0_m, symObjAddr: 0x3590, symBinAddr: 0x100004020, symSize: 0xC0 }
  - { offsetInCU: 0x102BF, offset: 0x102BF, size: 0x8, addend: 0x0, symName: __ZNSt3__117__compressed_pairIP11GRID_STATUSNS_9allocatorIS1_EEEC2B8ue170006IDnS4_EEOT_OT0_, symObjAddr: 0x3650, symBinAddr: 0x1000040E0, symSize: 0x44 }
  - { offsetInCU: 0x10317, offset: 0x10317, size: 0x8, addend: 0x0, symName: __ZNSt3__122__compressed_pair_elemINS_9allocatorI11GRID_STATUSEELi1ELb1EEC2B8ue170006IS3_vEEOT_, symObjAddr: 0x3694, symBinAddr: 0x100004124, symSize: 0x18 }
  - { offsetInCU: 0x10359, offset: 0x10359, size: 0x8, addend: 0x0, symName: __ZNSt3__16vectorI11GRID_STATUSNS_9allocatorIS1_EEE18__construct_at_endIPS1_S6_EEvT_T0_m, symObjAddr: 0x36AC, symBinAddr: 0x10000413C, symSize: 0x94 }
  - { offsetInCU: 0x103E8, offset: 0x103E8, size: 0x8, addend: 0x0, symName: __ZNSt3__14pairIP11GRID_STATUSS2_EC1B8ue170006ERKS2_S5_, symObjAddr: 0x39C8, symBinAddr: 0x100004458, symSize: 0x3C }
  - { offsetInCU: 0x1042E, offset: 0x1042E, size: 0x8, addend: 0x0, symName: __ZNSt3__14pairIP11GRID_STATUSS2_EC2B8ue170006ERKS2_S5_, symObjAddr: 0x3A04, symBinAddr: 0x100004494, symSize: 0x34 }
  - { offsetInCU: 0x10474, offset: 0x10474, size: 0x8, addend: 0x0, symName: __ZNSt3__129_AllocatorDestroyRangeReverseINS_9allocatorI11GRID_STATUSEEPS2_EC1B8ue170006ERS3_RS4_S7_, symObjAddr: 0x3A84, symBinAddr: 0x100004514, symSize: 0x44 }
  - { offsetInCU: 0x104CB, offset: 0x104CB, size: 0x8, addend: 0x0, symName: __ZNSt3__116allocator_traitsINS_9allocatorI11GRID_STATUSEEE9constructB8ue170006IS2_JRS2_EvEEvRS3_PT_DpOT0_, symObjAddr: 0x3AC8, symBinAddr: 0x100004558, symSize: 0x34 }
  - { offsetInCU: 0x10522, offset: 0x10522, size: 0x8, addend: 0x0, symName: __ZNSt3__128__exception_guard_exceptionsINS_29_AllocatorDestroyRangeReverseINS_9allocatorI11GRID_STATUSEEPS3_EEE10__completeB8ue170006Ev, symObjAddr: 0x3AFC, symBinAddr: 0x10000458C, symSize: 0x1C }
  - { offsetInCU: 0x10548, offset: 0x10548, size: 0x8, addend: 0x0, symName: __ZNSt3__128__exception_guard_exceptionsINS_29_AllocatorDestroyRangeReverseINS_9allocatorI11GRID_STATUSEEPS3_EEED1B8ue170006Ev, symObjAddr: 0x3B18, symBinAddr: 0x1000045A8, symSize: 0x2C }
  - { offsetInCU: 0x10572, offset: 0x10572, size: 0x8, addend: 0x0, symName: __ZNSt3__128__exception_guard_exceptionsINS_29_AllocatorDestroyRangeReverseINS_9allocatorI11GRID_STATUSEEPS3_EEEC1B8ue170006ES6_, symObjAddr: 0x3B44, symBinAddr: 0x1000045D4, symSize: 0x34 }
  - { offsetInCU: 0x105AB, offset: 0x105AB, size: 0x8, addend: 0x0, symName: __ZNSt3__128__exception_guard_exceptionsINS_29_AllocatorDestroyRangeReverseINS_9allocatorI11GRID_STATUSEEPS3_EEEC2B8ue170006ES6_, symObjAddr: 0x3B78, symBinAddr: 0x100004608, symSize: 0x30 }
  - { offsetInCU: 0x105E4, offset: 0x105E4, size: 0x8, addend: 0x0, symName: __ZNSt3__129_AllocatorDestroyRangeReverseINS_9allocatorI11GRID_STATUSEEPS2_EC2B8ue170006ERS3_RS4_S7_, symObjAddr: 0x3BA8, symBinAddr: 0x100004638, symSize: 0x38 }
  - { offsetInCU: 0x1063B, offset: 0x1063B, size: 0x8, addend: 0x0, symName: __ZNSt3__19allocatorI11GRID_STATUSE9constructB8ue170006IS1_JRS1_EEEvPT_DpOT0_, symObjAddr: 0x3BE0, symBinAddr: 0x100004670, symSize: 0x28 }
  - { offsetInCU: 0x10691, offset: 0x10691, size: 0x8, addend: 0x0, symName: __ZNSt3__128__exception_guard_exceptionsINS_29_AllocatorDestroyRangeReverseINS_9allocatorI11GRID_STATUSEEPS3_EEED2B8ue170006Ev, symObjAddr: 0x3C08, symBinAddr: 0x100004698, symSize: 0x48 }
  - { offsetInCU: 0x106BB, offset: 0x106BB, size: 0x8, addend: 0x0, symName: __ZNKSt3__129_AllocatorDestroyRangeReverseINS_9allocatorI11GRID_STATUSEEPS2_EclB8ue170006Ev, symObjAddr: 0x3C50, symBinAddr: 0x1000046E0, symSize: 0x68 }
  - { offsetInCU: 0x106E1, offset: 0x106E1, size: 0x8, addend: 0x0, symName: __ZNSt3__116reverse_iteratorIP11GRID_STATUSEC1B8ue170006ES2_, symObjAddr: 0x3D28, symBinAddr: 0x1000047B8, symSize: 0x34 }
  - { offsetInCU: 0x10719, offset: 0x10719, size: 0x8, addend: 0x0, symName: __ZNSt3__116reverse_iteratorIP11GRID_STATUSEppB8ue170006Ev, symObjAddr: 0x3DC8, symBinAddr: 0x100004858, symSize: 0x20 }
  - { offsetInCU: 0x1073F, offset: 0x1073F, size: 0x8, addend: 0x0, symName: __ZNKSt3__116reverse_iteratorIP11GRID_STATUSE4baseB8ue170006Ev, symObjAddr: 0x3DE8, symBinAddr: 0x100004878, symSize: 0x18 }
  - { offsetInCU: 0x1076A, offset: 0x1076A, size: 0x8, addend: 0x0, symName: __ZNSt3__119__to_address_helperINS_16reverse_iteratorIP11GRID_STATUSEEvE6__callB8ue170006ERKS4_, symObjAddr: 0x3E00, symBinAddr: 0x100004890, symSize: 0x4C }
  - { offsetInCU: 0x1078D, offset: 0x1078D, size: 0x8, addend: 0x0, symName: __ZNKSt3__116reverse_iteratorIP11GRID_STATUSEptB8ue170006Ev, symObjAddr: 0x3E4C, symBinAddr: 0x1000048DC, symSize: 0x24 }
  - { offsetInCU: 0x107B3, offset: 0x107B3, size: 0x8, addend: 0x0, symName: __ZNKSt3__116reverse_iteratorIP11GRID_STATUSEdeB8ue170006Ev, symObjAddr: 0x3E70, symBinAddr: 0x100004900, symSize: 0x28 }
  - { offsetInCU: 0x107E7, offset: 0x107E7, size: 0x8, addend: 0x0, symName: __ZNSt3__116reverse_iteratorIP11GRID_STATUSEC2B8ue170006ES2_, symObjAddr: 0x3E98, symBinAddr: 0x100004928, symSize: 0x28 }
  - { offsetInCU: 0x1081F, offset: 0x1081F, size: 0x8, addend: 0x0, symName: __ZNSt3__118__unwrap_iter_implIP11GRID_STATUSLb1EE8__unwrapB8ue170006ES2_, symObjAddr: 0x3EC0, symBinAddr: 0x100004950, symSize: 0x24 }
  - { offsetInCU: 0x10842, offset: 0x10842, size: 0x8, addend: 0x0, symName: __ZNSt3__118__unwrap_iter_implIP11GRID_STATUSLb1EE8__rewrapB8ue170006ES2_S2_, symObjAddr: 0x3EE4, symBinAddr: 0x100004974, symSize: 0x50 }
  - { offsetInCU: 0x10873, offset: 0x10873, size: 0x8, addend: 0x0, symName: __ZNSt3__16vectorINS0_I11GRID_STATUSNS_9allocatorIS1_EEEENS2_IS4_EEE21_ConstructTransactionD2B8ue170006Ev, symObjAddr: 0x3F34, symBinAddr: 0x1000049C4, symSize: 0x20 }
  - { offsetInCU: 0x1089D, offset: 0x1089D, size: 0x8, addend: 0x0, symName: __ZNSt3__128__exception_guard_exceptionsINS_6vectorINS1_I11GRID_STATUSNS_9allocatorIS2_EEEENS3_IS5_EEE16__destroy_vectorEED2B8ue170006Ev, symObjAddr: 0x3F54, symBinAddr: 0x1000049E4, symSize: 0x48 }
  - { offsetInCU: 0x108C7, offset: 0x108C7, size: 0x8, addend: 0x0, symName: __ZNSt3__16vectorINS0_I11GRID_STATUSNS_9allocatorIS1_EEEENS2_IS4_EEE16__destroy_vectorclB8ue170006Ev, symObjAddr: 0x3F9C, symBinAddr: 0x100004A2C, symSize: 0x90 }
  - { offsetInCU: 0x108ED, offset: 0x108ED, size: 0x8, addend: 0x0, symName: __ZNSt3__16vectorINS0_I11GRID_STATUSNS_9allocatorIS1_EEEENS2_IS4_EEE7__clearB8ue170006Ev, symObjAddr: 0x402C, symBinAddr: 0x100004ABC, symSize: 0x28 }
  - { offsetInCU: 0x10913, offset: 0x10913, size: 0x8, addend: 0x0, symName: __ZNKSt3__16vectorINS0_I11GRID_STATUSNS_9allocatorIS1_EEEENS2_IS4_EEE17__annotate_deleteB8ue170006Ev, symObjAddr: 0x4054, symBinAddr: 0x100004AE4, symSize: 0xD4 }
  - { offsetInCU: 0x10939, offset: 0x10939, size: 0x8, addend: 0x0, symName: __ZNSt3__116allocator_traitsINS_9allocatorINS_6vectorI11GRID_STATUSNS1_IS3_EEEEEEE10deallocateB8ue170006ERS6_PS5_m, symObjAddr: 0x4128, symBinAddr: 0x100004BB8, symSize: 0x34 }
  - { offsetInCU: 0x1097B, offset: 0x1097B, size: 0x8, addend: 0x0, symName: __ZNSt3__16vectorINS0_I11GRID_STATUSNS_9allocatorIS1_EEEENS2_IS4_EEE22__base_destruct_at_endB8ue170006EPS4_, symObjAddr: 0x415C, symBinAddr: 0x100004BEC, symSize: 0xA0 }
  - { offsetInCU: 0x109BF, offset: 0x109BF, size: 0x8, addend: 0x0, symName: __ZNSt3__116allocator_traitsINS_9allocatorINS_6vectorI11GRID_STATUSNS1_IS3_EEEEEEE7destroyB8ue170006IS5_vEEvRS6_PT_, symObjAddr: 0x41FC, symBinAddr: 0x100004C8C, symSize: 0x2C }
  - { offsetInCU: 0x109FC, offset: 0x109FC, size: 0x8, addend: 0x0, symName: __ZNSt3__19allocatorINS_6vectorI11GRID_STATUSNS0_IS2_EEEEE7destroyB8ue170006EPS4_, symObjAddr: 0x4228, symBinAddr: 0x100004CB8, symSize: 0x28 }
  - { offsetInCU: 0x10A30, offset: 0x10A30, size: 0x8, addend: 0x0, symName: __ZNSt3__19allocatorINS_6vectorI11GRID_STATUSNS0_IS2_EEEEE10deallocateB8ue170006EPS4_m, symObjAddr: 0x4250, symBinAddr: 0x100004CE0, symSize: 0x74 }
  - { offsetInCU: 0x10A72, offset: 0x10A72, size: 0x8, addend: 0x0, symName: __ZNSt3__16vectorINS0_I11GRID_STATUSNS_9allocatorIS1_EEEENS2_IS4_EEED2B8ue170006Ev, symObjAddr: 0x42C4, symBinAddr: 0x100004D54, symSize: 0x3C }
  - { offsetInCU: 0x10A9C, offset: 0x10A9C, size: 0x8, addend: 0x0, symName: __ZNSt3__16vectorINS0_I11GRID_STATUSNS_9allocatorIS1_EEEENS2_IS4_EEE19__copy_assign_allocB8ue170006ERKS6_, symObjAddr: 0x4300, symBinAddr: 0x100004D90, symSize: 0x2C }
  - { offsetInCU: 0x10AD1, offset: 0x10AD1, size: 0x8, addend: 0x0, symName: __ZNSt3__16vectorINS0_I11GRID_STATUSNS_9allocatorIS1_EEEENS2_IS4_EEE6assignIPS4_Li0EEEvT_S9_, symObjAddr: 0x432C, symBinAddr: 0x100004DBC, symSize: 0x5C }
  - { offsetInCU: 0x10B26, offset: 0x10B26, size: 0x8, addend: 0x0, symName: __ZNSt3__16vectorINS0_I11GRID_STATUSNS_9allocatorIS1_EEEENS2_IS4_EEE19__copy_assign_allocB8ue170006ERKS6_NS_17integral_constantIbLb0EEE, symObjAddr: 0x4388, symBinAddr: 0x100004E18, symSize: 0x14 }
  - { offsetInCU: 0x10B64, offset: 0x10B64, size: 0x8, addend: 0x0, symName: __ZNSt3__16vectorINS0_I11GRID_STATUSNS_9allocatorIS1_EEEENS2_IS4_EEE18__assign_with_sizeB8ue170006IPS4_S8_EEvT_T0_l, symObjAddr: 0x439C, symBinAddr: 0x100004E2C, symSize: 0x164 }
  - { offsetInCU: 0x10C16, offset: 0x10C16, size: 0x8, addend: 0x0, symName: __ZNSt3__16vectorINS0_I11GRID_STATUSNS_9allocatorIS1_EEEENS2_IS4_EEE18__construct_at_endIPS4_S8_EEvT_T0_m, symObjAddr: 0x45A0, symBinAddr: 0x100005030, symSize: 0x94 }
  - { offsetInCU: 0x10C8C, offset: 0x10C8C, size: 0x8, addend: 0x0, symName: __ZNSt3__16vectorINS0_I11GRID_STATUSNS_9allocatorIS1_EEEENS2_IS4_EEE17__destruct_at_endB8ue170006EPS4_, symObjAddr: 0x4678, symBinAddr: 0x100005108, symSize: 0x4C }
  - { offsetInCU: 0x10CD0, offset: 0x10CD0, size: 0x8, addend: 0x0, symName: __ZNSt3__16vectorINS0_I11GRID_STATUSNS_9allocatorIS1_EEEENS2_IS4_EEE13__vdeallocateEv, symObjAddr: 0x46C4, symBinAddr: 0x100005154, symSize: 0x94 }
  - { offsetInCU: 0x10CF8, offset: 0x10CF8, size: 0x8, addend: 0x0, symName: __ZNKSt3__16vectorINS0_I11GRID_STATUSNS_9allocatorIS1_EEEENS2_IS4_EEE11__recommendB8ue170006Em, symObjAddr: 0x4758, symBinAddr: 0x1000051E8, symSize: 0xB4 }
  - { offsetInCU: 0x10D66, offset: 0x10D66, size: 0x8, addend: 0x0, symName: __ZNSt3__14pairIPNS_6vectorI11GRID_STATUSNS_9allocatorIS2_EEEES6_EC1B8ue170006ERKS6_S9_, symObjAddr: 0x4B10, symBinAddr: 0x1000055A0, symSize: 0x3C }
  - { offsetInCU: 0x10DAC, offset: 0x10DAC, size: 0x8, addend: 0x0, symName: __ZNSt3__14pairIPNS_6vectorI11GRID_STATUSNS_9allocatorIS2_EEEES6_EC2B8ue170006ERKS6_S9_, symObjAddr: 0x4B4C, symBinAddr: 0x1000055DC, symSize: 0x34 }
  - { offsetInCU: 0x10DF2, offset: 0x10DF2, size: 0x8, addend: 0x0, symName: __ZNSt3__129_AllocatorDestroyRangeReverseINS_9allocatorINS_6vectorI11GRID_STATUSNS1_IS3_EEEEEEPS5_EC1B8ue170006ERS6_RS7_SA_, symObjAddr: 0x4BCC, symBinAddr: 0x10000565C, symSize: 0x44 }
  - { offsetInCU: 0x10E49, offset: 0x10E49, size: 0x8, addend: 0x0, symName: __ZNSt3__116allocator_traitsINS_9allocatorINS_6vectorI11GRID_STATUSNS1_IS3_EEEEEEE9constructB8ue170006IS5_JRS5_EvEEvRS6_PT_DpOT0_, symObjAddr: 0x4C10, symBinAddr: 0x1000056A0, symSize: 0x34 }
  - { offsetInCU: 0x10EA0, offset: 0x10EA0, size: 0x8, addend: 0x0, symName: __ZNSt3__128__exception_guard_exceptionsINS_29_AllocatorDestroyRangeReverseINS_9allocatorINS_6vectorI11GRID_STATUSNS2_IS4_EEEEEEPS6_EEE10__completeB8ue170006Ev, symObjAddr: 0x4C44, symBinAddr: 0x1000056D4, symSize: 0x1C }
  - { offsetInCU: 0x10EC6, offset: 0x10EC6, size: 0x8, addend: 0x0, symName: __ZNSt3__128__exception_guard_exceptionsINS_29_AllocatorDestroyRangeReverseINS_9allocatorINS_6vectorI11GRID_STATUSNS2_IS4_EEEEEEPS6_EEED1B8ue170006Ev, symObjAddr: 0x4C60, symBinAddr: 0x1000056F0, symSize: 0x2C }
  - { offsetInCU: 0x10EF0, offset: 0x10EF0, size: 0x8, addend: 0x0, symName: __ZNSt3__128__exception_guard_exceptionsINS_29_AllocatorDestroyRangeReverseINS_9allocatorINS_6vectorI11GRID_STATUSNS2_IS4_EEEEEEPS6_EEEC1B8ue170006ES9_, symObjAddr: 0x4C8C, symBinAddr: 0x10000571C, symSize: 0x34 }
  - { offsetInCU: 0x10F29, offset: 0x10F29, size: 0x8, addend: 0x0, symName: __ZNSt3__128__exception_guard_exceptionsINS_29_AllocatorDestroyRangeReverseINS_9allocatorINS_6vectorI11GRID_STATUSNS2_IS4_EEEEEEPS6_EEEC2B8ue170006ES9_, symObjAddr: 0x4CC0, symBinAddr: 0x100005750, symSize: 0x30 }
  - { offsetInCU: 0x10F62, offset: 0x10F62, size: 0x8, addend: 0x0, symName: __ZNSt3__129_AllocatorDestroyRangeReverseINS_9allocatorINS_6vectorI11GRID_STATUSNS1_IS3_EEEEEEPS5_EC2B8ue170006ERS6_RS7_SA_, symObjAddr: 0x4CF0, symBinAddr: 0x100005780, symSize: 0x38 }
  - { offsetInCU: 0x10FB9, offset: 0x10FB9, size: 0x8, addend: 0x0, symName: __ZNSt3__19allocatorINS_6vectorI11GRID_STATUSNS0_IS2_EEEEE9constructB8ue170006IS4_JRS4_EEEvPT_DpOT0_, symObjAddr: 0x4D28, symBinAddr: 0x1000057B8, symSize: 0x30 }
  - { offsetInCU: 0x1100F, offset: 0x1100F, size: 0x8, addend: 0x0, symName: __ZNSt3__128__exception_guard_exceptionsINS_29_AllocatorDestroyRangeReverseINS_9allocatorINS_6vectorI11GRID_STATUSNS2_IS4_EEEEEEPS6_EEED2B8ue170006Ev, symObjAddr: 0x4D58, symBinAddr: 0x1000057E8, symSize: 0x48 }
  - { offsetInCU: 0x11039, offset: 0x11039, size: 0x8, addend: 0x0, symName: __ZNKSt3__129_AllocatorDestroyRangeReverseINS_9allocatorINS_6vectorI11GRID_STATUSNS1_IS3_EEEEEEPS5_EclB8ue170006Ev, symObjAddr: 0x4DA0, symBinAddr: 0x100005830, symSize: 0x68 }
  - { offsetInCU: 0x1105F, offset: 0x1105F, size: 0x8, addend: 0x0, symName: __ZNSt3__116reverse_iteratorIPNS_6vectorI11GRID_STATUSNS_9allocatorIS2_EEEEEC1B8ue170006ES6_, symObjAddr: 0x4E78, symBinAddr: 0x100005908, symSize: 0x34 }
  - { offsetInCU: 0x11097, offset: 0x11097, size: 0x8, addend: 0x0, symName: __ZNSt3__116reverse_iteratorIPNS_6vectorI11GRID_STATUSNS_9allocatorIS2_EEEEEppB8ue170006Ev, symObjAddr: 0x4F18, symBinAddr: 0x1000059A8, symSize: 0x20 }
  - { offsetInCU: 0x110BD, offset: 0x110BD, size: 0x8, addend: 0x0, symName: __ZNKSt3__116reverse_iteratorIPNS_6vectorI11GRID_STATUSNS_9allocatorIS2_EEEEE4baseB8ue170006Ev, symObjAddr: 0x4F38, symBinAddr: 0x1000059C8, symSize: 0x18 }
  - { offsetInCU: 0x110E8, offset: 0x110E8, size: 0x8, addend: 0x0, symName: __ZNSt3__119__to_address_helperINS_16reverse_iteratorIPNS_6vectorI11GRID_STATUSNS_9allocatorIS3_EEEEEEvE6__callB8ue170006ERKS8_, symObjAddr: 0x4F50, symBinAddr: 0x1000059E0, symSize: 0x4C }
  - { offsetInCU: 0x1110B, offset: 0x1110B, size: 0x8, addend: 0x0, symName: __ZNKSt3__116reverse_iteratorIPNS_6vectorI11GRID_STATUSNS_9allocatorIS2_EEEEEptB8ue170006Ev, symObjAddr: 0x4F9C, symBinAddr: 0x100005A2C, symSize: 0x24 }
  - { offsetInCU: 0x11131, offset: 0x11131, size: 0x8, addend: 0x0, symName: __ZNKSt3__116reverse_iteratorIPNS_6vectorI11GRID_STATUSNS_9allocatorIS2_EEEEEdeB8ue170006Ev, symObjAddr: 0x4FC0, symBinAddr: 0x100005A50, symSize: 0x28 }
  - { offsetInCU: 0x11165, offset: 0x11165, size: 0x8, addend: 0x0, symName: __ZNSt3__116reverse_iteratorIPNS_6vectorI11GRID_STATUSNS_9allocatorIS2_EEEEEC2B8ue170006ES6_, symObjAddr: 0x4FE8, symBinAddr: 0x100005A78, symSize: 0x28 }
  - { offsetInCU: 0x1119D, offset: 0x1119D, size: 0x8, addend: 0x0, symName: __ZNSt3__118__unwrap_iter_implIPNS_6vectorI11GRID_STATUSNS_9allocatorIS2_EEEELb1EE8__unwrapB8ue170006ES6_, symObjAddr: 0x5010, symBinAddr: 0x100005AA0, symSize: 0x24 }
  - { offsetInCU: 0x111C0, offset: 0x111C0, size: 0x8, addend: 0x0, symName: __ZNSt3__118__unwrap_iter_implIPNS_6vectorI11GRID_STATUSNS_9allocatorIS2_EEEELb1EE8__rewrapB8ue170006ES6_S6_, symObjAddr: 0x5034, symBinAddr: 0x100005AC4, symSize: 0x58 }
  - { offsetInCU: 0x111FB, offset: 0x111FB, size: 0x8, addend: 0x0, symName: __ZNKSt3__111__copy_loopINS_17_ClassicAlgPolicyEEclB8ue170006IPNS_6vectorI11GRID_STATUSNS_9allocatorIS5_EEEES9_S9_EENS_4pairIT_T1_EESB_T0_SC_, symObjAddr: 0x5184, symBinAddr: 0x100005C14, symSize: 0x88 }
  - { offsetInCU: 0x11266, offset: 0x11266, size: 0x8, addend: 0x0, symName: __ZNSt3__16vectorI11GRID_STATUSNS_9allocatorIS1_EEEaSB8ue170006ERKS4_, symObjAddr: 0x5238, symBinAddr: 0x100005CC8, symSize: 0x68 }
  - { offsetInCU: 0x1129D, offset: 0x1129D, size: 0x8, addend: 0x0, symName: __ZNSt3__16vectorI11GRID_STATUSNS_9allocatorIS1_EEE19__copy_assign_allocB8ue170006ERKS4_, symObjAddr: 0x52A0, symBinAddr: 0x100005D30, symSize: 0x2C }
  - { offsetInCU: 0x112D2, offset: 0x112D2, size: 0x8, addend: 0x0, symName: __ZNSt3__16vectorI11GRID_STATUSNS_9allocatorIS1_EEE6assignIPS1_Li0EEEvT_S7_, symObjAddr: 0x52CC, symBinAddr: 0x100005D5C, symSize: 0x5C }
  - { offsetInCU: 0x11327, offset: 0x11327, size: 0x8, addend: 0x0, symName: __ZNSt3__16vectorI11GRID_STATUSNS_9allocatorIS1_EEE19__copy_assign_allocB8ue170006ERKS4_NS_17integral_constantIbLb0EEE, symObjAddr: 0x5328, symBinAddr: 0x100005DB8, symSize: 0x14 }
  - { offsetInCU: 0x11365, offset: 0x11365, size: 0x8, addend: 0x0, symName: __ZNSt3__16vectorI11GRID_STATUSNS_9allocatorIS1_EEE18__assign_with_sizeB8ue170006IPS1_S6_EEvT_T0_l, symObjAddr: 0x533C, symBinAddr: 0x100005DCC, symSize: 0x164 }
  - { offsetInCU: 0x11417, offset: 0x11417, size: 0x8, addend: 0x0, symName: __ZNSt3__16vectorI11GRID_STATUSNS_9allocatorIS1_EEE17__destruct_at_endB8ue170006EPS1_, symObjAddr: 0x5584, symBinAddr: 0x100006014, symSize: 0x4C }
  - { offsetInCU: 0x1145B, offset: 0x1145B, size: 0x8, addend: 0x0, symName: __ZNSt3__16vectorI11GRID_STATUSNS_9allocatorIS1_EEE13__vdeallocateEv, symObjAddr: 0x55D0, symBinAddr: 0x100006060, symSize: 0x94 }
  - { offsetInCU: 0x11483, offset: 0x11483, size: 0x8, addend: 0x0, symName: __ZNKSt3__16vectorI11GRID_STATUSNS_9allocatorIS1_EEE11__recommendB8ue170006Em, symObjAddr: 0x5664, symBinAddr: 0x1000060F4, symSize: 0xB4 }
  - { offsetInCU: 0x114E2, offset: 0x114E2, size: 0x8, addend: 0x0, symName: __ZNKSt3__114__copy_trivialclB8ue170006I11GRID_STATUSS2_Li0EEENS_4pairIPT_PT0_EES5_S5_S7_, symObjAddr: 0x5870, symBinAddr: 0x100006300, symSize: 0x48 }
  - { offsetInCU: 0x1154A, offset: 0x1154A, size: 0x8, addend: 0x0, symName: __ZNKSt3__16vectorI11GRID_STATUSNS_9allocatorIS1_EEE17__annotate_shrinkB8ue170006Em, symObjAddr: 0x5A3C, symBinAddr: 0x1000064CC, symSize: 0xB4 }
  - { offsetInCU: 0x1157F, offset: 0x1157F, size: 0x8, addend: 0x0, symName: __ZNSt3__16vectorI11GRID_STATUSNS_9allocatorIS1_EEE5clearB8ue170006Ev, symObjAddr: 0x5AF0, symBinAddr: 0x100006580, symSize: 0x44 }
  - { offsetInCU: 0x115B4, offset: 0x115B4, size: 0x8, addend: 0x0, symName: __ZNKSt3__16vectorINS0_I11GRID_STATUSNS_9allocatorIS1_EEEENS2_IS4_EEE17__annotate_shrinkB8ue170006Em, symObjAddr: 0x5BDC, symBinAddr: 0x10000666C, symSize: 0xD0 }
  - { offsetInCU: 0x115E9, offset: 0x115E9, size: 0x8, addend: 0x0, symName: __ZNSt3__16vectorINS0_I11GRID_STATUSNS_9allocatorIS1_EEEENS2_IS4_EEE5clearB8ue170006Ev, symObjAddr: 0x5CAC, symBinAddr: 0x10000673C, symSize: 0x44 }
  - { offsetInCU: 0x1161E, offset: 0x1161E, size: 0x8, addend: 0x0, symName: __ZNSt3__115__list_iteratorI5PointPvEC2B8ue170006Ev, symObjAddr: 0x5D18, symBinAddr: 0x1000067A8, symSize: 0x18 }
  - { offsetInCU: 0x11648, offset: 0x11648, size: 0x8, addend: 0x0, symName: __ZNSt3__110__list_impI5PointNS_9allocatorIS1_EEE5beginB8ue170006Ev, symObjAddr: 0x5D30, symBinAddr: 0x1000067C0, symSize: 0x30 }
  - { offsetInCU: 0x1166E, offset: 0x1166E, size: 0x8, addend: 0x0, symName: __ZNSt3__115__list_iteratorI5PointPvEC1B8ue170006EPNS_16__list_node_baseIS1_S2_EE, symObjAddr: 0x5D60, symBinAddr: 0x1000067F0, symSize: 0x34 }
  - { offsetInCU: 0x116A7, offset: 0x116A7, size: 0x8, addend: 0x0, symName: __ZNSt3__115__list_iteratorI5PointPvEC2B8ue170006EPNS_16__list_node_baseIS1_S2_EE, symObjAddr: 0x5D94, symBinAddr: 0x100006824, symSize: 0x20 }
  - { offsetInCU: 0x116E0, offset: 0x116E0, size: 0x8, addend: 0x0, symName: __ZNSt3__110__list_impI5PointNS_9allocatorIS1_EEE3endB8ue170006Ev, symObjAddr: 0x5DB4, symBinAddr: 0x100006844, symSize: 0x34 }
  - { offsetInCU: 0x11706, offset: 0x11706, size: 0x8, addend: 0x0, symName: __ZNSt3__114pointer_traitsIP5PointE10pointer_toB8ue170006ERS1_, symObjAddr: 0x5E18, symBinAddr: 0x1000068A8, symSize: 0x14 }
  - { offsetInCU: 0x11729, offset: 0x11729, size: 0x8, addend: 0x0, symName: __ZNSt3__111char_traitsIcE6lengthB8ue170006EPKc, symObjAddr: 0x6020, symBinAddr: 0x100006AB0, symSize: 0x48 }
  - { offsetInCU: 0x1176A, offset: 0x1176A, size: 0x8, addend: 0x0, symName: __ZNKSt3__113basic_ostreamIcNS_11char_traitsIcEEE6sentrycvbB8ue170006Ev, symObjAddr: 0x6068, symBinAddr: 0x100006AF8, symSize: 0x1C }
  - { offsetInCU: 0x11790, offset: 0x11790, size: 0x8, addend: 0x0, symName: __ZNSt3__119ostreambuf_iteratorIcNS_11char_traitsIcEEEC1B8ue170006ERNS_13basic_ostreamIcS2_EE, symObjAddr: 0x62CC, symBinAddr: 0x100006D5C, symSize: 0x34 }
  - { offsetInCU: 0x117C8, offset: 0x117C8, size: 0x8, addend: 0x0, symName: __ZNKSt3__18ios_base5flagsB8ue170006Ev, symObjAddr: 0x6300, symBinAddr: 0x100006D90, symSize: 0x18 }
  - { offsetInCU: 0x117F0, offset: 0x117F0, size: 0x8, addend: 0x0, symName: __ZNKSt3__19basic_iosIcNS_11char_traitsIcEEE4fillB8ue170006Ev, symObjAddr: 0x6318, symBinAddr: 0x100006DA8, symSize: 0x64 }
  - { offsetInCU: 0x11818, offset: 0x11818, size: 0x8, addend: 0x0, symName: __ZNKSt3__119ostreambuf_iteratorIcNS_11char_traitsIcEEE6failedB8ue170006Ev, symObjAddr: 0x637C, symBinAddr: 0x100006E0C, symSize: 0x24 }
  - { offsetInCU: 0x1183E, offset: 0x1183E, size: 0x8, addend: 0x0, symName: __ZNSt3__19basic_iosIcNS_11char_traitsIcEEE8setstateB8ue170006Ej, symObjAddr: 0x63A0, symBinAddr: 0x100006E30, symSize: 0x2C }
  - { offsetInCU: 0x11873, offset: 0x11873, size: 0x8, addend: 0x0, symName: __ZNKSt3__18ios_base5widthB8ue170006Ev, symObjAddr: 0x63CC, symBinAddr: 0x100006E5C, symSize: 0x18 }
  - { offsetInCU: 0x1189B, offset: 0x1189B, size: 0x8, addend: 0x0, symName: __ZNSt3__115basic_streambufIcNS_11char_traitsIcEEE5sputnB8ue170006EPKcl, symObjAddr: 0x63E4, symBinAddr: 0x100006E74, symSize: 0x3C }
  - { offsetInCU: 0x118DD, offset: 0x118DD, size: 0x8, addend: 0x0, symName: __ZNSt3__112basic_stringIcNS_11char_traitsIcEENS_9allocatorIcEEEC1B8ue170006Emc, symObjAddr: 0x6420, symBinAddr: 0x100006EB0, symSize: 0x3C }
  - { offsetInCU: 0x11925, offset: 0x11925, size: 0x8, addend: 0x0, symName: __ZNKSt3__112basic_stringIcNS_11char_traitsIcEENS_9allocatorIcEEE4dataB8ue170006Ev, symObjAddr: 0x645C, symBinAddr: 0x100006EEC, symSize: 0x28 }
  - { offsetInCU: 0x1194B, offset: 0x1194B, size: 0x8, addend: 0x0, symName: __ZNSt3__18ios_base5widthB8ue170006El, symObjAddr: 0x6484, symBinAddr: 0x100006F14, symSize: 0x2C }
  - { offsetInCU: 0x11991, offset: 0x11991, size: 0x8, addend: 0x0, symName: __ZNSt3__112basic_stringIcNS_11char_traitsIcEENS_9allocatorIcEEEC2B8ue170006Emc, symObjAddr: 0x64B0, symBinAddr: 0x100006F40, symSize: 0x4C }
  - { offsetInCU: 0x119D9, offset: 0x119D9, size: 0x8, addend: 0x0, symName: __ZNSt3__117__compressed_pairINS_12basic_stringIcNS_11char_traitsIcEENS_9allocatorIcEEE5__repES5_EC1B8ue170006INS_18__default_init_tagESA_EEOT_OT0_, symObjAddr: 0x64FC, symBinAddr: 0x100006F8C, symSize: 0x3C }
  - { offsetInCU: 0x11A31, offset: 0x11A31, size: 0x8, addend: 0x0, symName: __ZNSt3__117__compressed_pairINS_12basic_stringIcNS_11char_traitsIcEENS_9allocatorIcEEE5__repES5_EC2B8ue170006INS_18__default_init_tagESA_EEOT_OT0_, symObjAddr: 0x6538, symBinAddr: 0x100006FC8, symSize: 0x3C }
  - { offsetInCU: 0x11A89, offset: 0x11A89, size: 0x8, addend: 0x0, symName: __ZNSt3__122__compressed_pair_elemINS_12basic_stringIcNS_11char_traitsIcEENS_9allocatorIcEEE5__repELi0ELb0EEC2B8ue170006ENS_18__default_init_tagE, symObjAddr: 0x6574, symBinAddr: 0x100007004, symSize: 0x14 }
  - { offsetInCU: 0x11ABD, offset: 0x11ABD, size: 0x8, addend: 0x0, symName: __ZNSt3__122__compressed_pair_elemINS_9allocatorIcEELi1ELb1EEC2B8ue170006ENS_18__default_init_tagE, symObjAddr: 0x6588, symBinAddr: 0x100007018, symSize: 0x2C }
  - { offsetInCU: 0x11AF1, offset: 0x11AF1, size: 0x8, addend: 0x0, symName: __ZNSt3__19allocatorIcEC2B8ue170006Ev, symObjAddr: 0x65B4, symBinAddr: 0x100007044, symSize: 0x2C }
  - { offsetInCU: 0x11B1B, offset: 0x11B1B, size: 0x8, addend: 0x0, symName: __ZNSt3__116__non_trivial_ifILb1ENS_9allocatorIcEEEC2B8ue170006Ev, symObjAddr: 0x65E0, symBinAddr: 0x100007070, symSize: 0x14 }
  - { offsetInCU: 0x11B45, offset: 0x11B45, size: 0x8, addend: 0x0, symName: __ZNKSt3__112basic_stringIcNS_11char_traitsIcEENS_9allocatorIcEEE13__get_pointerB8ue170006Ev, symObjAddr: 0x6608, symBinAddr: 0x100007098, symSize: 0x54 }
  - { offsetInCU: 0x11B6B, offset: 0x11B6B, size: 0x8, addend: 0x0, symName: __ZNKSt3__112basic_stringIcNS_11char_traitsIcEENS_9allocatorIcEEE9__is_longB8ue170006Ev, symObjAddr: 0x665C, symBinAddr: 0x1000070EC, symSize: 0x74 }
  - { offsetInCU: 0x11B91, offset: 0x11B91, size: 0x8, addend: 0x0, symName: __ZNKSt3__112basic_stringIcNS_11char_traitsIcEENS_9allocatorIcEEE18__get_long_pointerB8ue170006Ev, symObjAddr: 0x66D0, symBinAddr: 0x100007160, symSize: 0x28 }
  - { offsetInCU: 0x11BB7, offset: 0x11BB7, size: 0x8, addend: 0x0, symName: __ZNKSt3__112basic_stringIcNS_11char_traitsIcEENS_9allocatorIcEEE19__get_short_pointerB8ue170006Ev, symObjAddr: 0x66F8, symBinAddr: 0x100007188, symSize: 0x28 }
  - { offsetInCU: 0x11BDD, offset: 0x11BDD, size: 0x8, addend: 0x0, symName: __ZNKSt3__117__compressed_pairINS_12basic_stringIcNS_11char_traitsIcEENS_9allocatorIcEEE5__repES5_E5firstB8ue170006Ev, symObjAddr: 0x6720, symBinAddr: 0x1000071B0, symSize: 0x24 }
  - { offsetInCU: 0x11C03, offset: 0x11C03, size: 0x8, addend: 0x0, symName: __ZNKSt3__122__compressed_pair_elemINS_12basic_stringIcNS_11char_traitsIcEENS_9allocatorIcEEE5__repELi0ELb0EE5__getB8ue170006Ev, symObjAddr: 0x6744, symBinAddr: 0x1000071D4, symSize: 0x14 }
  - { offsetInCU: 0x11C29, offset: 0x11C29, size: 0x8, addend: 0x0, symName: __ZNSt3__114pointer_traitsIPKcE10pointer_toB8ue170006ERS1_, symObjAddr: 0x6758, symBinAddr: 0x1000071E8, symSize: 0x14 }
  - { offsetInCU: 0x11C4C, offset: 0x11C4C, size: 0x8, addend: 0x0, symName: __ZNSt3__119ostreambuf_iteratorIcNS_11char_traitsIcEEEC2B8ue170006ERNS_13basic_ostreamIcS2_EE, symObjAddr: 0x676C, symBinAddr: 0x1000071FC, symSize: 0x68 }
  - { offsetInCU: 0x11C84, offset: 0x11C84, size: 0x8, addend: 0x0, symName: __ZNKSt3__19basic_iosIcNS_11char_traitsIcEEE5rdbufB8ue170006Ev, symObjAddr: 0x67D4, symBinAddr: 0x100007264, symSize: 0x24 }
  - { offsetInCU: 0x11CAC, offset: 0x11CAC, size: 0x8, addend: 0x0, symName: __ZNKSt3__18ios_base5rdbufB8ue170006Ev, symObjAddr: 0x67F8, symBinAddr: 0x100007288, symSize: 0x18 }
  - { offsetInCU: 0x11CD2, offset: 0x11CD2, size: 0x8, addend: 0x0, symName: __ZNSt3__111char_traitsIcE11eq_int_typeB8ue170006Eii, symObjAddr: 0x6810, symBinAddr: 0x1000072A0, symSize: 0x28 }
  - { offsetInCU: 0x11D05, offset: 0x11D05, size: 0x8, addend: 0x0, symName: __ZNSt3__111char_traitsIcE3eofB8ue170006Ev, symObjAddr: 0x6838, symBinAddr: 0x1000072C8, symSize: 0x8 }
  - { offsetInCU: 0x11D19, offset: 0x11D19, size: 0x8, addend: 0x0, symName: __ZNKSt3__19basic_iosIcNS_11char_traitsIcEEE5widenB8ue170006Ec, symObjAddr: 0x6840, symBinAddr: 0x1000072D0, symSize: 0x8C }
  - { offsetInCU: 0x11D82, offset: 0x11D82, size: 0x8, addend: 0x0, symName: __ZNKSt3__15ctypeIcE5widenB8ue170006Ec, symObjAddr: 0x68F8, symBinAddr: 0x100007388, symSize: 0x38 }
  - { offsetInCU: 0x11DB7, offset: 0x11DB7, size: 0x8, addend: 0x0, symName: __ZNSt3__18ios_base8setstateB8ue170006Ej, symObjAddr: 0x6930, symBinAddr: 0x1000073C0, symSize: 0x34 }
  - { offsetInCU: 0x11DEE, offset: 0x11DEE, size: 0x8, addend: 0x0, symName: __ZNSt3__16vectorINS0_I11GRID_STATUSNS_9allocatorIS1_EEEENS2_IS4_EEEC2B8ue170006Ev, symObjAddr: 0x6988, symBinAddr: 0x100007418, symSize: 0x44 }
...
